
build/imx8qm/release/bl31/bl31.elf:     file format elf64-littleaarch64
build/imx8qm/release/bl31/bl31.elf
architecture: aarch64, flags 0x00000112:
EXEC_P, HAS_SYMS, D_PAGED
start address 0x0000000080000000

Program Header:
    LOAD off    0x0000000000010000 vaddr 0x0000000080000000 paddr 0x0000000080000000 align 2**16
         filesz 0x0000000000009041 memsz 0x0000000000018000 flags rwx
   STACK off    0x0000000000000000 vaddr 0x0000000000000000 paddr 0x0000000000000000 align 2**4
         filesz 0x0000000000000000 memsz 0x0000000000000000 flags rw-
private flags = 0:

Sections:
Idx Name          Size      VMA               LMA               File off  Algn
  0 ro            00009000  0000000080000000  0000000080000000  00010000  2**11
                  CONTENTS, ALLOC, LOAD, CODE
  1 .data         00000041  0000000080009000  0000000080009000  00019000  2**3
                  CONTENTS, ALLOC, LOAD, DATA
  2 stacks        00001800  0000000080009080  0000000080009080  00019041  2**6
                  ALLOC
  3 .bss          00003c34  000000008000a880  000000008000a880  00019041  2**6
                  ALLOC
  4 xlat_table    00008000  000000008000f000  000000008000f000  00019041  2**12
                  ALLOC
  5 coherent_ram  00001000  0000000080017000  0000000080017000  00019041  2**12
                  ALLOC
  6 .debug_info   000256f3  0000000000000000  0000000000000000  00019041  2**0
                  CONTENTS, READONLY, DEBUGGING
  7 .debug_abbrev 00007c29  0000000000000000  0000000000000000  0003e734  2**0
                  CONTENTS, READONLY, DEBUGGING
  8 .debug_aranges 00002010  0000000000000000  0000000000000000  0004635d  2**0
                  CONTENTS, READONLY, DEBUGGING
  9 .debug_line   0000fd34  0000000000000000  0000000000000000  0004836d  2**0
                  CONTENTS, READONLY, DEBUGGING
 10 .debug_str    0000525e  0000000000000000  0000000000000000  000580a1  2**0
                  CONTENTS, READONLY, DEBUGGING
 11 .comment      00000011  0000000000000000  0000000000000000  0005d2ff  2**0
                  CONTENTS, READONLY
 12 .debug_loc    00027600  0000000000000000  0000000000000000  0005d310  2**0
                  CONTENTS, READONLY, DEBUGGING
 13 .debug_ranges 000068f0  0000000000000000  0000000000000000  00084910  2**0
                  CONTENTS, READONLY, DEBUGGING
 14 .debug_frame  00000f10  0000000000000000  0000000000000000  0008b200  2**3
                  CONTENTS, READONLY, DEBUGGING
SYMBOL TABLE:
0000000080000000 l    d  ro	0000000000000000 ro
0000000080009000 l    d  .data	0000000000000000 .data
0000000080009080 l    d  stacks	0000000000000000 stacks
000000008000a880 l    d  .bss	0000000000000000 .bss
000000008000f000 l    d  xlat_table	0000000000000000 xlat_table
0000000080017000 l    d  coherent_ram	0000000000000000 coherent_ram
0000000000000000 l    d  .debug_info	0000000000000000 .debug_info
0000000000000000 l    d  .debug_abbrev	0000000000000000 .debug_abbrev
0000000000000000 l    d  .debug_aranges	0000000000000000 .debug_aranges
0000000000000000 l    d  .debug_line	0000000000000000 .debug_line
0000000000000000 l    d  .debug_str	0000000000000000 .debug_str
0000000000000000 l    d  .comment	0000000000000000 .comment
0000000000000000 l    d  .debug_loc	0000000000000000 .debug_loc
0000000000000000 l    d  .debug_ranges	0000000000000000 .debug_ranges
0000000000000000 l    d  .debug_frame	0000000000000000 .debug_frame
0000000000000000 l    df *ABS*	0000000000000000 ./build/imx8qm/release/bl31/bl31_entrypoint.o
00000000800001b8 l       ro	0000000000000000 stm
00000000800000a4 l       ro	0000000000000000 do_cold_boot
00000000800000fc l       ro	0000000000000000 do_primary_cold_boot
0000000000000000 l    df *ABS*	0000000000000000 imx8qm_bl31_setup.c
000000008000a880 l     O .bss	0000000000000058 bl32_image_ep_info
000000008000a8d8 l     O .bss	0000000000000058 bl33_image_ep_info
0000000080007558 l     O ro	0000000000000008 imx8qm_cci_map
0000000080007560 l     O ro	0000000000000040 imx_mmap
0000000000000000 l    df *ABS*	0000000000000000 imx8qm_psci.c
000000008000a940 l     O .bss	0000000000002930 imx_gicv3_ctx
000000008000a930 l     O .bss	0000000000000004 gpt_lpcg
000000008000a938 l     O .bss	0000000000000008 gpt_reg
00000000800075d8 l     O ro	0000000000000018 ap_core_index
00000000800075f0 l     O ro	00000000000000a0 imx_plat_psci_ops
0000000000000000 l    df *ABS*	0000000000000000 imx8_topology.c
0000000000000000 l    df *ABS*	0000000000000000 imx8_psci.c
0000000000000000 l    df *ABS*	0000000000000000 cpufreq.c
0000000080007700 l     O ro	0000000000000008 ap_cluster_index
0000000000000000 l    df *ABS*	0000000000000000 srtc.c
0000000000000000 l    df *ABS*	0000000000000000 misc.c
000000008000d270 l     O .bss	0000000000000001 wakeup_src_irqsteer
0000000000000000 l    df *ABS*	0000000000000000 imx8_sip_svc.c
0000000080001948 l     F ro	0000000000000020 plat_svc_setup
0000000080007988 l     O ro	0000000000000020 __svc_desc_imx_svc
0000000000000000 l    df *ABS*	0000000000000000 xlat_tables.c
000000008000d280 l     O .bss	0000000000000020 base_xlation_table
000000008000d2a0 l     O .bss	0000000000000008 tcr_ps_bits
0000000000000000 l    df *ABS*	0000000000000000 xlat_tables_common.c
0000000080001a90 l     F ro	00000000000001f8 init_xlation_table_inner
000000008000f000 l     O xlat_table	0000000000008000 xlat_tables
000000008000d2a8 l     O .bss	0000000000000008 ap1_mask
000000008000d2b0 l     O .bss	0000000000000008 execute_never_mask
000000008000d2b8 l     O .bss	00000000000001a0 mmap
000000008000d458 l     O .bss	0000000000000004 next_xlat
000000008000d460 l     O .bss	0000000000000008 xlat_max_pa
000000008000d468 l     O .bss	0000000000000008 xlat_max_va
0000000000000000 l    df *ABS*	0000000000000000 cci.c
000000008000d470 l     O .bss	0000000000000008 cci_base
000000008000d478 l     O .bss	0000000000000008 cci_slave_if_map
0000000000000000 l    df *ABS*	0000000000000000 gicv3_helpers.c
0000000000000000 l    df *ABS*	0000000000000000 arm_gicv3_common.c
0000000000000000 l    df *ABS*	0000000000000000 gic500.c
0000000000000000 l    df *ABS*	0000000000000000 gicv3_main.c
0000000000000000 l    df *ABS*	0000000000000000 gic_common.c
0000000000000000 l    df *ABS*	0000000000000000 plat_gicv3.c
0000000080007720 l     O ro	0000000000000010 CSWTCH.10
0000000000000000 l    df *ABS*	0000000000000000 plat_psci_common.c
0000000000000000 l    df *ABS*	0000000000000000 plat_imx8_gic.c
0000000080002ed8 l     F ro	0000000000000004 plat_imx_mpidr_to_core_pos
0000000080007760 l     O ro	0000000000000004 g01s_interrupt_props
0000000000000000 l    df *ABS*	0000000000000000 ipc.c
0000000000000000 l    df *ABS*	0000000000000000 imx8_mu.c
0000000000000000 l    df *ABS*	0000000000000000 pm_rpc_clnt.c
0000000000000000 l    df *ABS*	0000000000000000 rm_rpc_clnt.c
0000000000000000 l    df *ABS*	0000000000000000 timer_rpc_clnt.c
0000000000000000 l    df *ABS*	0000000000000000 misc_rpc_clnt.c
0000000000000000 l    df *ABS*	0000000000000000 bl31_main.c
000000008000d480 l     O .bss	0000000000000008 bl32_init
0000000080009028 l     O .data	0000000000000004 next_image_type
00000000800077c8 l     O ro	0000000000000010 psci_args.2704
0000000000000000 l    df *ABS*	0000000000000000 interrupt_mgmt.c
000000008000d488 l     O .bss	0000000000000048 intr_type_descs
0000000000000000 l    df *ABS*	0000000000000000 bl31_context_mgmt.c
0000000000000000 l    df *ABS*	0000000000000000 runtime_svc.c
0000000000000000 l    df *ABS*	0000000000000000 arm_arch_svc_setup.c
0000000080003ed8 l     F ro	00000000000000bc arm_arch_svc_smc_handler
00000000800079a8 l     O ro	0000000000000020 __svc_desc_arm_arch_svc
0000000000000000 l    df *ABS*	0000000000000000 std_svc_setup.c
0000000080003f98 l     F ro	0000000000000024 std_svc_setup
0000000080003fc0 l     F ro	00000000000000c8 std_svc_smc_handler
00000000800079c8 l     O ro	0000000000000020 __svc_desc_std_svc
0000000000000000 l    df *ABS*	0000000000000000 context_mgmt.c
0000000000000000 l    df *ABS*	0000000000000000 psci_off.c
0000000000000000 l    df *ABS*	0000000000000000 psci_on.c
0000000000000000 l    df *ABS*	0000000000000000 psci_suspend.c
0000000000000000 l    df *ABS*	0000000000000000 psci_common.c
000000008000d4d0 l     O .bss	000000000000000c psci_req_local_pwr_states
0000000000000000 l    df *ABS*	0000000000000000 psci_main.c
0000000000000000 l    df *ABS*	0000000000000000 psci_setup.c
000000008000d4e0 l     O .bss	0000000000000d20 psci_ns_context
0000000000000000 l    df *ABS*	0000000000000000 psci_system_off.c
0000000000000000 l    df *ABS*	0000000000000000 psci_mem_protect.c
0000000000000000 l    df *ABS*	0000000000000000 bakery_lock_coherent.c
0000000000000000 l    df *ABS*	0000000000000000 spe.c
0000000080005e80 l     F ro	0000000000000028 spe_drain_buffers_hook
0000000000000000 l    df *ABS*	0000000000000000 sve.c
0000000080005ee0 l     F ro	0000000000000034 disable_sve_hook
0000000080005f18 l     F ro	0000000000000034 enable_sve_hook
0000000000000000 l    df *ABS*	0000000000000000 bl_common.c
0000000000000000 l    df *ABS*	0000000000000000 tf_log.c
000000008000902c l     O .data	0000000000000004 max_log_level
0000000000000000 l    df *ABS*	0000000000000000 plat_log_common.c
00000000800078e8 l     O ro	0000000000000028 plat_prefix_str
0000000000000000 l    df *ABS*	0000000000000000 plat_common.c
0000000000000000 l    df *ABS*	0000000000000000 ./build/imx8qm/release/bl31/imx8_helpers.o
0000000080009030 l       .data	0000000000000000 mailbox_base
000000008000610c l       ro	0000000000000000 A72
0000000080006140 l       ro	0000000000000000 warm_boot
0000000000000000 l    df *ABS*	0000000000000000 ./build/imx8qm/release/bl31/cortex_a53.o
0000000000000008 l       *ABS*	0000000000000000 CPU_MIDR_SIZE
0000000000000008 l       *ABS*	0000000000000000 CPU_EXTRA1_FUNC_SIZE
0000000000000008 l       *ABS*	0000000000000000 CPU_EXTRA2_FUNC_SIZE
0000000000000008 l       *ABS*	0000000000000000 CPU_RESET_FUNC_SIZE
0000000000000010 l       *ABS*	0000000000000000 CPU_PWR_DWN_OPS_SIZE
0000000000000000 l       *ABS*	0000000000000000 CPU_ERRATA_FUNC_SIZE
0000000000000000 l       *ABS*	0000000000000000 CPU_ERRATA_LOCK_SIZE
0000000000000000 l       *ABS*	0000000000000000 CPU_ERRATA_PRINTED_SIZE
0000000000000000 l       *ABS*	0000000000000000 CPU_REG_DUMP_SIZE
0000000000000000 l       *ABS*	0000000000000000 CPU_MIDR
0000000000000008 l       *ABS*	0000000000000000 CPU_RESET_FUNC
0000000000000010 l       *ABS*	0000000000000000 CPU_EXTRA1_FUNC
0000000000000018 l       *ABS*	0000000000000000 CPU_EXTRA2_FUNC
0000000000000020 l       *ABS*	0000000000000000 CPU_PWR_DWN_OPS
0000000000000030 l       *ABS*	0000000000000000 CPU_ERRATA_FUNC
0000000000000030 l       *ABS*	0000000000000000 CPU_ERRATA_LOCK
0000000000000030 l       *ABS*	0000000000000000 CPU_ERRATA_PRINTED
0000000000000030 l       *ABS*	0000000000000000 CPU_REG_DUMP
0000000000000030 l       *ABS*	0000000000000000 CPU_OPS_SIZE
0000000080006168 l     F ro	0000000000000014 cortex_a53_disable_dcache
000000008000617c l     F ro	0000000000000018 cortex_a53_disable_smp
0000000080006194 l     F ro	000000000000001c errata_a53_855873_wa
00000000800061b0 l     F ro	0000000000000008 check_errata_855873
00000000800061b8 l     F ro	0000000000000028 cortex_a53_reset_func
00000000800061e0 l     F ro	0000000000000018 cortex_a53_core_pwr_dwn
00000000800061f8 l     F ro	0000000000000024 cortex_a53_cluster_pwr_dwn
0000000000000000 l    df *ABS*	0000000000000000 ./build/imx8qm/release/bl31/cortex_a72.o
0000000000000008 l       *ABS*	0000000000000000 CPU_MIDR_SIZE
0000000000000008 l       *ABS*	0000000000000000 CPU_EXTRA1_FUNC_SIZE
0000000000000008 l       *ABS*	0000000000000000 CPU_EXTRA2_FUNC_SIZE
0000000000000008 l       *ABS*	0000000000000000 CPU_RESET_FUNC_SIZE
0000000000000010 l       *ABS*	0000000000000000 CPU_PWR_DWN_OPS_SIZE
0000000000000000 l       *ABS*	0000000000000000 CPU_ERRATA_FUNC_SIZE
0000000000000000 l       *ABS*	0000000000000000 CPU_ERRATA_LOCK_SIZE
0000000000000000 l       *ABS*	0000000000000000 CPU_ERRATA_PRINTED_SIZE
0000000000000000 l       *ABS*	0000000000000000 CPU_REG_DUMP_SIZE
0000000000000000 l       *ABS*	0000000000000000 CPU_MIDR
0000000000000008 l       *ABS*	0000000000000000 CPU_RESET_FUNC
0000000000000010 l       *ABS*	0000000000000000 CPU_EXTRA1_FUNC
0000000000000018 l       *ABS*	0000000000000000 CPU_EXTRA2_FUNC
0000000000000020 l       *ABS*	0000000000000000 CPU_PWR_DWN_OPS
0000000000000030 l       *ABS*	0000000000000000 CPU_ERRATA_FUNC
0000000000000030 l       *ABS*	0000000000000000 CPU_ERRATA_LOCK
0000000000000030 l       *ABS*	0000000000000000 CPU_ERRATA_PRINTED
0000000000000030 l       *ABS*	0000000000000000 CPU_REG_DUMP
0000000000000030 l       *ABS*	0000000000000000 CPU_OPS_SIZE
000000008000621c l     F ro	0000000000000014 cortex_a72_disable_dcache
0000000080006230 l     F ro	0000000000000020 cortex_a72_disable_l2_prefetch
0000000080006250 l     F ro	0000000000000018 cortex_a72_disable_hw_prefetcher
0000000080006268 l     F ro	0000000000000010 cortex_a72_disable_smp
0000000080006278 l     F ro	0000000000000014 cortex_a72_disable_ext_debug
000000008000628c l     F ro	000000000000001c errata_a72_859971_wa
00000000800062a8 l     F ro	0000000000000008 check_errata_859971
00000000800062b0 l     F ro	0000000000000020 check_errata_cve_2017_5715
00000000800062d0 l     F ro	0000000000000054 cortex_a72_reset_func
0000000080006324 l     F ro	0000000000000024 cortex_a72_core_pwr_dwn
0000000080006348 l     F ro	0000000000000030 cortex_a72_cluster_pwr_dwn
0000000000000000 l    df *ABS*	0000000000000000 ./build/imx8qm/release/bl31/console.o
0000000080009040 l       .data	0000000000000000 console_state
0000000080006390 l       ro	0000000000000000 putc_loop
00000000800063d0 l       ro	0000000000000000 putc_done
00000000800063c8 l       ro	0000000000000000 putc_continue
00000000800063f4 l       ro	0000000000000000 flush_loop
0000000080006430 l       ro	0000000000000000 flush_done
0000000080006428 l       ro	0000000000000000 flush_continue
0000000000000000 l    df *ABS*	0000000000000000 ./build/imx8qm/release/bl31/crash_reporting.o
0000000000000000 l    df *ABS*	0000000000000000 ./build/imx8qm/release/bl31/ea_delegate.o
00000000800064a4 l     F ro	0000000000000068 ea_proceed
000000008000649c l     F ro	0000000000000004 delegate_sync_ea
00000000800064a0 l     F ro	0000000000000004 delegate_async_ea
0000000000000000 l    df *ABS*	0000000000000000 ./build/imx8qm/release/bl31/runtime_exceptions.o
000000008000650c l       ro	0000000000000000 smc_handler32
0000000080006510 l       ro	0000000000000000 smc_handler64
00000000800084d8 l       ro	0000000000000000 interrupt_exit_irq_aarch64
0000000080008558 l       ro	0000000000000000 interrupt_exit_fiq_aarch64
00000000800086d8 l       ro	0000000000000000 interrupt_exit_irq_aarch32
0000000080008758 l       ro	0000000000000000 interrupt_exit_fiq_aarch32
000000008000650c l     F ro	00000000000000b8 smc_handler
00000000800065b0 l       ro	0000000000000000 smc_prohibited
00000000800065a4 l       ro	0000000000000000 smc_unknown
00000000800065bc l       ro	0000000000000000 rt_svc_fw_critical_error
0000000000000000 l    df *ABS*	0000000000000000 ./build/imx8qm/release/bl31/platform_mp_stack.o
0000000080009080 l       stacks	0000000000000000 platform_normal_stacks
0000000000000006 l       *ABS*	0000000000000000 TZ_COUNT
0000000000000000 l    df *ABS*	0000000000000000 ./build/imx8qm/release/bl31/cpu_data.o
0000000000000000 l    df *ABS*	0000000000000000 ./build/imx8qm/release/bl31/cpu_helpers.o
0000000000000008 l       *ABS*	0000000000000000 CPU_MIDR_SIZE
0000000000000008 l       *ABS*	0000000000000000 CPU_EXTRA1_FUNC_SIZE
0000000000000008 l       *ABS*	0000000000000000 CPU_EXTRA2_FUNC_SIZE
0000000000000008 l       *ABS*	0000000000000000 CPU_RESET_FUNC_SIZE
0000000000000010 l       *ABS*	0000000000000000 CPU_PWR_DWN_OPS_SIZE
0000000000000000 l       *ABS*	0000000000000000 CPU_ERRATA_FUNC_SIZE
0000000000000000 l       *ABS*	0000000000000000 CPU_ERRATA_LOCK_SIZE
0000000000000000 l       *ABS*	0000000000000000 CPU_ERRATA_PRINTED_SIZE
0000000000000000 l       *ABS*	0000000000000000 CPU_REG_DUMP_SIZE
0000000000000000 l       *ABS*	0000000000000000 CPU_MIDR
0000000000000008 l       *ABS*	0000000000000000 CPU_RESET_FUNC
0000000000000010 l       *ABS*	0000000000000000 CPU_EXTRA1_FUNC
0000000000000018 l       *ABS*	0000000000000000 CPU_EXTRA2_FUNC
0000000000000020 l       *ABS*	0000000000000000 CPU_PWR_DWN_OPS
0000000000000030 l       *ABS*	0000000000000000 CPU_ERRATA_FUNC
0000000000000030 l       *ABS*	0000000000000000 CPU_ERRATA_LOCK
0000000000000030 l       *ABS*	0000000000000000 CPU_ERRATA_PRINTED
0000000000000030 l       *ABS*	0000000000000000 CPU_REG_DUMP
0000000000000030 l       *ABS*	0000000000000000 CPU_OPS_SIZE
00000000800066bc l       ro	0000000000000000 error_exit
0000000000000000 l    df *ABS*	0000000000000000 ./build/imx8qm/release/bl31/spinlock.o
0000000080006720 l       ro	0000000000000000 l1
0000000080006724 l       ro	0000000000000000 l2
0000000000000000 l    df *ABS*	0000000000000000 ./build/imx8qm/release/bl31/psci_helpers.o
0000000000000000 l    df *ABS*	0000000000000000 ./build/imx8qm/release/bl31/context.o
0000000000000000 l    df *ABS*	0000000000000000 ./build/imx8qm/release/bl31/debug.o
000000008000796f l       ro	0000000000000000 panic_msg
0000000080006978 l       ro	0000000000000000 panic_common
000000008000699c l       ro	0000000000000000 _panic_handler
0000000000000000 l    df *ABS*	0000000000000000 ./build/imx8qm/release/bl31/cache_helpers.o
00000000800069d8 l       ro	0000000000000000 exit_loop_civac
00000000800069c4 l       ro	0000000000000000 loop_civac
0000000080006a10 l       ro	0000000000000000 exit_loop_cvac
00000000800069fc l       ro	0000000000000000 loop_cvac
0000000080006a48 l       ro	0000000000000000 exit_loop_ivac
0000000080006a34 l       ro	0000000000000000 loop_ivac
0000000080006a4c l     F ro	000000000000007c do_dcsw_op
0000000080006ac4 l       ro	0000000000000000 exit
0000000080006ac8 l       ro	0000000000000000 dcsw_loop_table
0000000080006a60 l       ro	0000000000000000 loop1
0000000080006aac l       ro	0000000000000000 level_done
0000000080006ac8 l       ro	0000000000000000 loop2_isw
0000000080006acc l       ro	0000000000000000 loop3_isw
0000000080006ae8 l       ro	0000000000000000 loop2_cisw
0000000080006aec l       ro	0000000000000000 loop3_cisw
0000000080006b08 l       ro	0000000000000000 loop2_csw
0000000080006b0c l       ro	0000000000000000 loop3_csw
0000000000000000 l    df *ABS*	0000000000000000 ./build/imx8qm/release/bl31/misc_helpers.o
0000000080006b50 l     F ro	00000000000000e8 zeromem_dczva
0000000000000000 l    df *ABS*	0000000000000000 ./build/imx8qm/release/bl31/platform_helpers.o
0000000000000000 l    df *ABS*	0000000000000000 memcpy.c
0000000000000000 l    df *ABS*	0000000000000000 memmove.c
0000000000000000 l    df *ABS*	0000000000000000 memset.c
0000000000000000 l    df *ABS*	0000000000000000 printf.c
0000000080006ce8 l     F ro	00000000000000dc unsigned_num_print
0000000000000000 l    df *ABS*	0000000000000000 putchar.c
0000000000000000 l    df *ABS*	0000000000000000 strchr.c
0000000000000000 l    df *ABS*	0000000000000000 
0000000000000000 l    df *ABS*	0000000000000000 ./build/imx8qm/release/bl31/wa_cve_2017_5715_mmu.o
0000000080008800 l     F ro	0000000000000000 mmu_sync_exception_sp_el0
0000000080008880 l     F ro	0000000000000000 mmu_irq_sp_el0
0000000080008900 l     F ro	0000000000000000 mmu_fiq_sp_el0
0000000080008980 l     F ro	0000000000000000 mmu_serror_sp_el0
0000000080008a00 l     F ro	0000000000000000 mmu_sync_exception_sp_elx
0000000080008a80 l     F ro	0000000000000000 mmu_irq_sp_elx
0000000080008b00 l     F ro	0000000000000000 mmu_fiq_sp_elx
0000000080008b80 l     F ro	0000000000000000 mmu_serror_sp_elx
0000000080008c00 l     F ro	0000000000000000 mmu_sync_exception_aarch64
0000000080008c80 l     F ro	0000000000000000 mmu_irq_aarch64
0000000080008d00 l     F ro	0000000000000000 mmu_fiq_aarch64
0000000080008d80 l     F ro	0000000000000000 mmu_serror_aarch64
0000000080008e00 l     F ro	0000000000000000 mmu_sync_exception_aarch32
0000000080008e80 l     F ro	0000000000000000 mmu_irq_aarch32
0000000080008f00 l     F ro	0000000000000000 mmu_fiq_aarch32
0000000080008f80 l     F ro	0000000000000000 mmu_serror_aarch32
0000000000000000 l    df *ABS*	0000000000000000 cpu_data_array.c
0000000080002d30 g     F ro	0000000000000014 gicd_read_nsacr
00000000800072c0  w    F ro	000000000000002c putchar
00000000800032e8 g     F ro	0000000000000014 MU_Init
00000000800042b8 g     F ro	00000000000000e0 cm_prepare_el3_exit
0000000080003560 g     F ro	0000000000000044 sc_pm_cpu_start
0000000080002e78  w    F ro	0000000000000030 plat_ic_get_pending_interrupt_type
0000000080001f28 g     F ro	0000000000000014 gicd_write_igrpmodr
00000000800041f8 g     F ro	00000000000000c0 cm_el1_sysregs_context_restore
0000000080003a00 g     F ro	000000000000006c sc_timer_get_wdog_status
0000000080007a58 g     O ro	0000000000000008 __cb_func_disable_sve_hookcm_exited_normal_world
0000000080018000 g       coherent_ram	0000000000000000 __BL31_END__
00000000800051b8 g     F ro	000000000000011c psci_cpu_suspend
0000000080018000 g       coherent_ram	0000000000000000 __COHERENT_RAM_END__
0000000080006620 g     F ro	0000000000000020 reset_handler
0000000080008600 g     F ro	0000000000000000 sync_exception_aarch32
0000000080006b48 g     F ro	0000000000000008 zeromem
0000000080007340 g     O ro	000000000000002e version_string
0000000080007a48 g       ro	0000000000000000 __pubsub_psci_suspend_pwrdown_finish_end
0000000080004ef0 g     F ro	0000000000000110 psci_validate_entry_point
0000000080005f98 g     F ro	0000000000000004 print_entry_point_info
0000000080003d28 g     F ro	000000000000000c cm_get_context
0000000080006870 g     F ro	0000000000000048 save_gp_registers
0000000080004e28 g     F ro	00000000000000a4 psci_release_pwr_domain_locks
0000000080004998 g     F ro	0000000000000028 psci_validate_power_state
00000000800012b8 g     F ro	0000000000000038 plat_core_pos_by_mpidr
0000000080001718 g     F ro	0000000000000020 imx_misc_set_temp_handler
0000000080009000 g       ro	0000000000000000 __RW_START__
00000000800036a8 g     F ro	000000000000004c sc_rm_move_all
00000000800048d0 g     F ro	00000000000000c4 psci_cpu_suspend_finish
0000000080007730 g     O ro	0000000000000030 arm_gic_data
00000000800009f8 g     F ro	0000000000000028 bl31_plat_get_next_image_ep_info
0000000080006b28 g     F ro	0000000000000010 dcsw_op_level1
0000000080006978 g     F ro	000000000000002c do_panic
0000000080006c78 g     F ro	0000000000000050 memmove
000000008000e240 g     O .bss	0000000000000080 rt_svc_descs_indices
0000000080002d60 g     F ro	0000000000000014 gicd_write_isenabler
00000000800011b0 g     F ro	00000000000000f4 plat_setup_psci_ops
0000000080008200 g     F ro	0000000000000000 sync_exception_sp_elx
0000000080002d78 g     F ro	0000000000000014 gicd_write_ispendr
0000000080008000 g     F ro	0000000000000000 sync_exception_sp_el0
00000000800067b0 g     F ro	000000000000000c psci_power_down_wfi
0000000080003628 g     F ro	0000000000000044 sc_rm_get_partition
0000000080002fa8 g     F ro	0000000000000048 plat_gic_restore
00000000800025d8 g     F ro	000000000000003c gicv3_cpuif_disable
000000008000677c g     F ro	0000000000000034 psci_do_pwrup_cache_maintenance
0000000080005340 g     F ro	0000000000000058 psci_affinity_info
0000000080006040  w    F ro	000000000000003c plat_log_get_prefix
0000000080005398 g     F ro	0000000000000084 psci_migrate
0000000080001fd0 g     F ro	0000000000000058 gicv3_rdistif_base_addrs_probe
0000000080007320 g     O ro	000000000000001e build_message
0000000080000be8 g     F ro	0000000000000304 imx_domain_suspend
000000008000690c g     F ro	0000000000000024 el3_exit
0000000080005818 g     F ro	0000000000000368 psci_setup
0000000080001990 g     F ro	0000000000000074 init_xlat_tables
0000000080000a30 g     F ro	0000000000000004 bl31_plat_runtime_setup
0000000080009000 g       .data	0000000000000000 __DATA_START__
0000000080017010 g     O coherent_ram	0000000000000048 psci_locks
0000000080003208 g     F ro	000000000000005c MU_Resume
0000000080006c3c  w    F ro	0000000000000004 plat_disable_acp
0000000080004d70 g     F ro	0000000000000034 psci_find_target_suspend_lvl
0000000080003b88 g     F ro	0000000000000038 sc_misc_otp_fuse_write
0000000080002e10 g     F ro	000000000000001c gicd_set_isenabler
0000000080005b80 g     F ro	000000000000001c psci_arch_setup
00000000800066f8 g     F ro	0000000000000020 check_wa_cve_2017_5715
0000000080000b20 g     F ro	0000000000000038 imx_pwr_domain_on_finish
0000000080005bd8 g     F ro	0000000000000038 psci_system_reset
0000000080002e30 g     F ro	0000000000000010 gicd_set_ipriorityr
0000000080006c58 g     F ro	0000000000000020 memcpy
0000000080004ed0 g     F ro	0000000000000020 psci_validate_mpidr
00000000800052d8 g     F ro	0000000000000068 psci_system_suspend
0000000080008380 g     F ro	0000000000000000 serror_sp_elx
0000000080004198 g     F ro	000000000000002c cm_init_context_by_index
0000000080002430 g     F ro	000000000000008c gicv3_distif_init
0000000080008080 g     F ro	0000000000000000 irq_sp_el0
0000000080006b50 g     F ro	00000000000000e8 zero_normalmem
0000000080004af0 g     F ro	0000000000000040 psci_get_parent_pwr_domain_nodes
0000000080003908 g     F ro	0000000000000030 sc_timer_set_wdog_timeout
00000000800023d8 g     F ro	0000000000000054 gicv3_driver_init
0000000080007a48 g     O ro	0000000000000008 __cb_func_spe_drain_buffers_hookcm_entering_secure_world
0000000080006080  w    F ro	0000000000000040 plat_ea_handler
00000000800068b8 g     F ro	0000000000000048 restore_gp_registers
0000000080005ba0 g     F ro	0000000000000038 psci_system_off
0000000080006164 g     F ro	0000000000000004 platform_mem_init
0000000080007a50 g       ro	0000000000000000 __pubsub_cm_exited_secure_world_end
0000000080001da0 g     F ro	0000000000000040 mmap_add
00000000800001c0 g     F ro	0000000000000060 bl31_warm_entrypoint
0000000080000a20 g     F ro	000000000000000c plat_get_syscnt_freq2
0000000080006c40  w    F ro	0000000000000008 plat_panic_handler
000000008000614c g     F ro	000000000000000c imx_mailbox_init
0000000080007988 g       ro	0000000000000000 __RT_SVC_DESCS_START__
0000000080001e78 g     F ro	0000000000000014 cci_init
0000000080001438 g     F ro	0000000000000014 imx_get_sys_suspend_power_state
0000000080003aa8 g     F ro	0000000000000044 sc_timer_set_rtc_time
000000008000a880 g       stacks	0000000000000000 __STACKS_END__
0000000080001fb0 g     F ro	000000000000001c gicv3_rdistif_mark_core_asleep
0000000080007a48 g       ro	0000000000000000 __pubsub_psci_suspend_pwrdown_start_end
00000000800069dc g     F ro	0000000000000038 clean_dcache_range
0000000080006640 g     F ro	0000000000000024 prepare_cpu_pwr_dwn
0000000080001458 g     F ro	000000000000004c imx_cpufreq_handler
0000000080003968 g     F ro	0000000000000038 sc_timer_start_wdog
00000000800023d0 g     F ro	0000000000000004 gicv3_distif_post_restore
0000000080005000 g     F ro	000000000000011c psci_warmboot_entrypoint
0000000080003460 g     F ro	0000000000000050 sc_pm_set_clock_rate
0000000080001f70 g     F ro	000000000000003c gicv3_rdistif_mark_core_awake
0000000080003368 g     F ro	0000000000000034 sc_pm_req_low_power_mode
0000000080007a58 g       ro	0000000000000000 __pubsub_cm_exited_normal_world_start
00000000800065e8  w    F ro	0000000000000010 plat_set_my_stack
0000000080003d60 g     F ro	0000000000000028 cm_set_context_by_index
00000000800079e8 g       ro	0000000000000000 __RT_SVC_DESCS_END__
0000000080001f40 g     F ro	0000000000000014 gicr_read_ipriorityr
0000000080006948 g     F ro	0000000000000030 asm_print_hex
0000000080000938 g     F ro	00000000000000a4 bl31_plat_arch_setup
0000000080003c70 g     F ro	0000000000000064 bl31_main
0000000080001c88 g     F ro	0000000000000004 print_mmap
000000008000e440 g     O .bss	0000000000000060 psci_cpu_pd_nodes
0000000000003c34 g       *ABS*	0000000000000000 __BSS_SIZE__
0000000080006930 g     F ro	0000000000000018 asm_print_str
0000000080017000 g     O coherent_ram	000000000000000c sc_ipc_bakery_lock
0000000080006c48  w    F ro	0000000000000004 bl31_plat_enable_mmu
0000000080004088 g     F ro	0000000000000004 cm_init
0000000080006c38  w    F ro	0000000000000004 plat_crash_console_flush
0000000080008000 g       ro	0000000000000000 runtime_exceptions
000000008000e210 g     O .bss	0000000000000030 rdistif_base_addrs
00000000800033d8 g     F ro	0000000000000044 sc_pm_set_cpu_resume
0000000080002dd0 g     F ro	0000000000000014 gicd_write_nsacr
0000000080001ed0 g     F ro	000000000000003c cci_disable_snoop_dvm_reqs
0000000080003100 g     F ro	0000000000000098 sc_ipc_write
0000000080001f58 g     F ro	0000000000000014 gicr_write_ipriorityr
0000000080007a50 g       ro	0000000000000000 __pubsub_cm_exited_secure_world_start
0000000080005120 g     F ro	0000000000000024 psci_spd_migrate_info
00000000800012f0 g     F ro	0000000000000030 imx_system_off
000000008000660c g     F ro	0000000000000014 _cpu_data_by_index
0000000080003500 g     F ro	0000000000000030 sc_pm_reset
0000000080005148 g     F ro	0000000000000004 psci_print_power_domain_map
0000000080009000 g       ro	0000000000000000 __RO_END_UNALIGNED__
0000000080002ea8 g     F ro	000000000000002c plat_get_target_pwr_state
0000000080003060 g     F ro	00000000000000a0 sc_ipc_read
0000000080006378 g     F ro	0000000000000068 console_putc
0000000080006158 g     F ro	0000000000000004 plat_secondary_cold_boot_setup
0000000080002868 g     F ro	0000000000000208 gicv3_distif_save
0000000080002db8 g     F ro	0000000000000014 gicd_write_icfgr
0000000080006c50  w    F ro	0000000000000004 plat_handle_el3_ea
00000000800035a8 g     F ro	0000000000000080 sc_rm_partition_alloc
00000000800049d8 g     F ro	0000000000000060 psci_is_last_on_cpu
000000008000615c g     F ro	0000000000000004 plat_crash_console_init
0000000080008680 g     F ro	0000000000000000 irq_aarch32
00000000800069a4 g     F ro	0000000000000038 flush_dcache_range
0000000080003268 g     F ro	0000000000000028 MU_EnableRxFullInt
0000000080001e90 g     F ro	000000000000003c cci_enable_snoop_dvm_reqs
0000000080000860 g     F ro	00000000000000d4 bl31_early_platform_setup2
0000000080003af0 g     F ro	0000000000000050 sc_misc_get_control
0000000080002728 g     F ro	0000000000000140 gicv3_rdistif_init_restore
0000000080003a70 g     F ro	0000000000000034 sc_timer_set_wdog_action
0000000080007a50 g     O ro	0000000000000008 __cb_func_enable_sve_hookcm_entering_normal_world
0000000080008180 g     F ro	0000000000000000 serror_sp_el0
000000008000e200 g     O .bss	0000000000000008 ipc_handle
0000000080006dc8 g     F ro	00000000000004f4 vprintf
0000000080001630 g     F ro	000000000000000c imx_is_wakeup_src_irqsteer
0000000080006440 g     F ro	0000000000000004 report_unhandled_exception
0000000080004620 g     F ro	00000000000000dc psci_cpu_on_finish
00000000800037e0 g     F ro	0000000000000058 sc_rm_memreg_alloc
00000000800039d0 g     F ro	000000000000002c sc_timer_ping_wdog
00000000800060e8 g     F ro	0000000000000038 plat_reset_handler
0000000080001a88 g     F ro	0000000000000004 enable_mmu_direct_el3
00000000800024c8 g     F ro	0000000000000088 gicv3_rdistif_init
0000000080007a58 g       ro	0000000000000000 __pubsub_cm_entering_normal_world_end
0000000080006684 g     F ro	000000000000003c get_cpu_ops_ptr
0000000080000000 g     F ro	0000000000000180 bl31_entrypoint
0000000080003d38 g     F ro	0000000000000024 cm_get_context_by_index
0000000080008800 g       ro	0000000000000000 wa_cve_2017_5715_mmu_vbar
00000000800041c8 g     F ro	000000000000002c cm_init_my_context
0000000080008580 g     F ro	0000000000000000 serror_aarch64
00000000800065f8 g     F ro	0000000000000014 init_cpu_data_ptr
0000000080001738 g     F ro	000000000000006c imx_get_cpu_rev
0000000080006444 g     F ro	0000000000000040 enter_lower_el_sync_ea
0000000080001968 g     F ro	000000000000000c xlat_arch_current_el
0000000080003770 g     F ro	0000000000000038 sc_rm_set_peripheral_permissions
00000000800020c0 g     F ro	0000000000000130 gicv3_secure_spis_config_props
0000000080002d18 g     F ro	0000000000000014 gicd_read_icfgr
0000000080002d08 g     F ro	0000000000000010 gicd_read_ipriorityr
0000000080004398 g     F ro	00000000000000fc psci_do_cpu_off
000000008000e4b0 g     O .bss	0000000000000004 psci_caps
0000000080000b58 g     F ro	0000000000000090 imx_pwr_domain_off
00000000800033a0 g     F ro	0000000000000038 sc_pm_req_cpu_low_power_mode
0000000080004090 g     F ro	0000000000000104 cm_setup_context
0000000080008280 g     F ro	0000000000000000 irq_sp_elx
0000000080008100 g     F ro	0000000000000000 fiq_sp_el0
0000000080009041 g       .data	0000000000000000 __DATA_END__
00000000800032b8 g     F ro	0000000000000030 MU_ReceiveMsg
00000000800079e8 g       ro	0000000000000000 __CPU_OPS_START__
00000000800021f0 g     F ro	000000000000005c gicv3_ppi_sgi_config_defaults
0000000080006a14 g     F ro	0000000000000038 inv_dcache_range
0000000080000a40 g     F ro	00000000000000e0 imx_pwr_domain_on
0000000080006900 g     F ro	000000000000000c restore_gp_registers_eret
00000000800054e8 g     F ro	000000000000032c psci_smc_handler
0000000080004700 g     F ro	00000000000001cc psci_cpu_suspend_start
0000000080004a38 g     F ro	000000000000001c psci_init_req_local_pwr_states
0000000080007a50 g       ro	0000000000000000 __pubsub_cm_entering_secure_world_end
0000000080000ef0 g     F ro	00000000000002c0 imx_domain_suspend_finish
00000000800066c0 g     F ro	0000000000000010 cpu_get_rev_var
0000000080004498 g     F ro	0000000000000188 psci_cpu_on_start
0000000080004d30 g     F ro	000000000000003c psci_find_max_off_lvl
0000000080002ff0 g     F ro	000000000000006c sc_ipc_open
0000000080001678 g     F ro	000000000000009c imx_otp_handler
00000000800060c0 g     F ro	0000000000000014 plat_is_my_cpu_primary
0000000080000220 g     F ro	0000000000000640 mx8_partition_resources
0000000080002e40 g     F ro	0000000000000034 gicd_set_icfgr
0000000080017058 g     O coherent_ram	0000000000000060 psci_non_cpu_pd_nodes
000000008000e4b4 g       .bss	0000000000000000 __BSS_END__
0000000080007a48 g       ro	0000000000000000 __CPU_OPS_END__
0000000080005150 g     F ro	0000000000000004 psci_do_pwrdown_sequence
0000000080006740 g     F ro	000000000000003c psci_do_pwrdown_cache_maintenance
0000000080002ef0 g     F ro	0000000000000020 plat_gic_init
0000000080006120 g     F ro	000000000000002c plat_get_my_entrypoint
0000000080001f10 g     F ro	0000000000000014 gicd_read_igrpmodr
0000000080007a48 g       ro	0000000000000000 __pubsub_cm_entering_secure_world_start
0000000080002cc0 g     F ro	0000000000000014 gicd_read_isenabler
0000000080005158 g     F ro	000000000000005c psci_cpu_on
0000000080001de0 g     F ro	0000000000000094 init_xlation_table
0000000080003c10 g     F ro	0000000000000060 bl31_prepare_next_image_entry
0000000080017000 g       coherent_ram	0000000000000000 __COHERENT_RAM_START__
0000000080001320 g     F ro	0000000000000030 imx_system_reset
0000000080003838 g     F ro	0000000000000034 sc_rm_assign_memreg
0000000080005478 g     F ro	000000000000006c psci_features
0000000080006cc8 g     F ro	0000000000000020 memset
0000000080003290 g     F ro	0000000000000028 MU_SendMessage
0000000080004a58 g     F ro	0000000000000094 psci_get_target_local_pwr_states
00000000800013f0 g     F ro	0000000000000044 imx_validate_power_state
0000000080009000 g     O .data	0000000000000006 ns_access_allowed
0000000080007a60 g       ro	0000000000000000 __pubsub_cm_exited_normal_world_end
00000000000000b8 g       *ABS*	0000000000000000 __COHERENT_RAM_UNALIGNED_SIZE__
0000000080006484 g     F ro	0000000000000018 enter_lower_el_async_ea
000000008000e4a0 g     O .bss	0000000000000008 psci_plat_pm_ops
00000000800014a8 g     F ro	0000000000000184 imx_srtc_handler
0000000080003bc0 g     F ro	000000000000003c sc_misc_set_temp
0000000080007a48 g       ro	0000000000000000 __pubsub_psci_suspend_pwrdown_start_start
0000000080003c00 g     F ro	000000000000000c get_arm_std_svc_args
0000000080007a50 g       ro	0000000000000000 __pubsub_cm_entering_normal_world_start
0000000080005d68 g     F ro	00000000000000e0 bakery_lock_get
0000000080003b40 g     F ro	0000000000000048 sc_misc_otp_fuse_read
0000000080003420 g     F ro	000000000000003c sc_pm_req_sys_if_power_mode
0000000080005cb0 g     F ro	0000000000000064 psci_mem_protect
0000000080005e48 g     F ro	0000000000000034 bakery_lock_release
0000000080003d00 g     F ro	0000000000000028 get_interrupt_type_handler
00000000800012a8 g     F ro	000000000000000c plat_get_power_domain_tree_desc
00000000800038a8 g     F ro	0000000000000060 sc_rm_get_memreg_info
0000000080002da8 g     F ro	0000000000000010 gicd_write_ipriorityr
0000000080003300 g     F ro	0000000000000030 sc_pm_set_sys_power_mode
0000000080001808 g     F ro	0000000000000140 imx_svc_smc_handler
00000000800039a0 g     F ro	000000000000002c sc_timer_stop_wdog
0000000080005420 g     F ro	0000000000000058 psci_node_hw_state
0000000080000a38 g     F ro	0000000000000008 imx_validate_ns_entrypoint
0000000080002d90 g     F ro	0000000000000014 gicd_write_isactiver
0000000080006b38 g     F ro	0000000000000010 dcsw_op_level2
0000000080006664 g     F ro	0000000000000020 init_cpu_ops
00000000800063e0 g     F ro	0000000000000060 console_flush
0000000080008300 g     F ro	0000000000000000 fiq_sp_elx
0000000080009000 g       ro	0000000000000000 __RO_END__
0000000080008400 g     F ro	0000000000000000 sync_exception_aarch64
0000000080008500 g     F ro	0000000000000000 fiq_aarch64
0000000080002ca8 g     F ro	0000000000000014 gicd_read_igroupr
0000000080003730 g     F ro	0000000000000040 sc_rm_set_resource_movable
0000000080006738 g     F ro	0000000000000008 spin_unlock
000000008000a880 g       .bss	0000000000000000 __BSS_START__
0000000080000000 g       ro	0000000000000000 __RO_START__
0000000080005ea8 g     F ro	0000000000000038 spe_enable
0000000080006160 g     F ro	0000000000000004 plat_crash_console_putc
000000008000e2c0 g     O .bss	0000000000000180 percpu_data
00000000800037a8 g     F ro	0000000000000038 sc_rm_is_resource_owned
00000000800066e4 g     F ro	0000000000000014 cpu_rev_var_hs
00000000800034b0 g     F ro	000000000000004c sc_pm_clock_enable
00000000800036f8 g     F ro	0000000000000034 sc_rm_assign_resource
0000000080003870 g     F ro	0000000000000038 sc_rm_is_memreg_owned
00000000800024c0  w    F ro	0000000000000004 gicv3_rdistif_on
0000000080006718 g     F ro	0000000000000020 spin_lock
0000000080002618 g     F ro	000000000000000c gicv3_get_pending_interrupt_type
0000000080003198 g     F ro	0000000000000070 sc_call_rpc
0000000080002f58 g     F ro	0000000000000050 plat_gic_save
00000000800049c0 g     F ro	0000000000000014 psci_query_sys_suspend_pwrstate
0000000080007690 g     O ro	0000000000000004 imx_power_domain_tree_desc
0000000080002f40 g     F ro	0000000000000014 plat_gic_pcpu_init
0000000080005fa0 g     F ro	00000000000000a0 tf_log
0000000080007a48 g       ro	0000000000000000 __pubsub_psci_cpu_on_finish_start
00000000800066d0 g     F ro	0000000000000014 cpu_rev_var_ls
0000000080003cd8 g     F ro	0000000000000028 get_scr_el3_from_routing_model
0000000080018000 g       coherent_ram	0000000000000000 __RW_END__
0000000080003330 g     F ro	0000000000000034 sc_pm_set_resource_power_mode
0000000080001978 g     F ro	0000000000000014 xlat_arch_get_xn_desc
00000000800170b8 g       coherent_ram	0000000000000000 __COHERENT_RAM_END_UNALIGNED__
00000000800009e0 g     F ro	0000000000000014 bl31_platform_setup
0000000080009080 g       stacks	0000000000000000 __STACKS_START__
0000000080002a70 g     F ro	0000000000000238 gicv3_distif_init_restore
0000000080004bc0 g     F ro	000000000000016c psci_do_state_coordination
0000000080005c10 g     F ro	000000000000009c psci_system_reset2
0000000080001a08 g     F ro	0000000000000080 enable_mmu_el3
0000000080008780 g     F ro	0000000000000000 serror_aarch32
0000000080006c4c  w    F ro	0000000000000004 plat_handle_double_fault
0000000080005f50 g     F ro	0000000000000044 sve_enable
0000000080001450 g     F ro	0000000000000008 imx_pwr_domain_pwr_down_wfi
0000000080009008 g     O .data	000000000000001e secure_rsrcs
0000000080002360 g     F ro	000000000000002c arm_gicv3_distif_pre_save
0000000080007a48 g       ro	0000000000000000 __pubsub_psci_suspend_pwrdown_finish_start
0000000080002028 g     F ro	0000000000000094 gicv3_spis_config_defaults
00000000800060d4 g     F ro	0000000000000014 plat_my_core_pos
0000000080002250 g     F ro	000000000000010c gicv3_secure_ppi_sgi_config_props
0000000080003d88 g     F ro	0000000000000150 runtime_svc_init
0000000080002cd8 g     F ro	0000000000000014 gicd_read_ispendr
0000000080008480 g     F ro	0000000000000000 irq_aarch64
0000000080001640 g     F ro	0000000000000038 imx_wakeup_src_handler
00000000800023c8 g     F ro	0000000000000004 gicv3_distif_pre_save
0000000080005d18 g     F ro	000000000000004c psci_mem_chk_range
0000000080006978  w      ro	0000000000000000 el3_panic
0000000080002de8 g     F ro	0000000000000024 gicd_clr_igroupr
0000000080002f28 g     F ro	0000000000000014 plat_gic_cpuif_disable
00000000800072f0 g     F ro	000000000000002c strchr
000000008000e208 g     O .bss	0000000000000008 gicv3_driver_data
0000000080004da8 g     F ro	0000000000000080 psci_acquire_pwr_domain_locks
0000000080007a48 g       ro	0000000000000000 __pubsub_psci_cpu_on_finish_end
00000000800067bc g     F ro	00000000000000b4 el1_sysregs_context_restore
0000000080003670 g     F ro	0000000000000034 sc_rm_set_parent
0000000080001350 g     F ro	000000000000009c imx_system_reset2
0000000080003530 g     F ro	000000000000002c sc_pm_reboot
0000000080009038 g       .data	0000000000000000 console_list
0000000080004b30 g     F ro	0000000000000090 psci_set_pwr_domains_to_run
0000000080002550 g     F ro	0000000000000084 gicv3_cpuif_enable
0000000080002390 g     F ro	0000000000000034 arm_gicv3_distif_post_restore
0000000080002d48 g     F ro	0000000000000014 gicd_write_igroupr
0000000080006440 g       ro	0000000000000000 report_unhandled_interrupt
0000000080003938 g     F ro	0000000000000030 sc_timer_set_wdog_pre_timeout
00000000800017a8 g     F ro	000000000000005c imx_buildinfo_handler
0000000080008700 g     F ro	0000000000000000 fiq_aarch32
00000000800065c8  w    F ro	0000000000000018 plat_get_my_stack
0000000080001c90 g     F ro	000000000000010c mmap_add_region
0000000080002cf0 g     F ro	0000000000000014 gicd_read_isactiver
0000000080002628 g     F ro	0000000000000100 gicv3_rdistif_save
000000008000e4a8 g     O .bss	0000000000000008 psci_spd_pm
0000000080002ee0 g     F ro	000000000000000c plat_gic_driver_init
0000000080002f10 g     F ro	0000000000000014 plat_gic_cpuif_enable



Disassembly of section ro:

0000000080000000 <bl31_entrypoint>:
    80000000:	58000dc1 	ldr	x1, 800001b8 <stm>
    80000004:	18000be0 	ldr	w0, 80000180 <do_primary_cold_boot+0x84>
    80000008:	b9000020 	str	w0, [x1]
    8000000c:	b9000020 	str	w0, [x1]
    80000010:	b9000020 	str	w0, [x1]
    80000014:	b9000020 	str	w0, [x1]
    80000018:	b9000020 	str	w0, [x1]
    8000001c:	b9000020 	str	w0, [x1]
    80000020:	b9000020 	str	w0, [x1]
    80000024:	b9000020 	str	w0, [x1]
    80000028:	b9000020 	str	w0, [x1]
    8000002c:	b9000020 	str	w0, [x1]
    80000030:	b9000020 	str	w0, [x1]
    80000034:	b9000020 	str	w0, [x1]
    80000038:	b9000020 	str	w0, [x1]
    8000003c:	b9000020 	str	w0, [x1]
    80000040:	b9000020 	str	w0, [x1]
    80000044:	b9000020 	str	w0, [x1]
    80000048:	b9000020 	str	w0, [x1]
    8000004c:	b9000020 	str	w0, [x1]
    80000050:	b9000020 	str	w0, [x1]
    80000054:	b9000020 	str	w0, [x1]
    80000058:	b9000020 	str	w0, [x1]
    8000005c:	b9000020 	str	w0, [x1]
    80000060:	b9000020 	str	w0, [x1]
    80000064:	b9000020 	str	w0, [x1]
    80000068:	b9000020 	str	w0, [x1]
    8000006c:	b9000020 	str	w0, [x1]
    80000070:	b9000020 	str	w0, [x1]
    80000074:	b9000020 	str	w0, [x1]
    80000078:	b9000020 	str	w0, [x1]
    8000007c:	b9000020 	str	w0, [x1]
    80000080:	b9000020 	str	w0, [x1]
    80000084:	b9000020 	str	w0, [x1]
    80000088:	d2810600 	mov	x0, #0x830                 	// #2096
    8000008c:	f2a618a0 	movk	x0, #0x30c5, lsl #16
    80000090:	d51e1000 	msr	sctlr_el3, x0
    80000094:	d5033fdf 	isb
    80000098:	94001822 	bl	80006120 <plat_get_my_entrypoint>
    8000009c:	b4000040 	cbz	x0, 800000a4 <do_cold_boot>
    800000a0:	d61f0000 	br	x0

00000000800000a4 <do_cold_boot>:
    800000a4:	1003fae0 	adr	x0, 80008000 <sync_exception_sp_el0>
    800000a8:	d51ec000 	msr	vbar_el3, x0
    800000ac:	d5033fdf 	isb
    800000b0:	9400195c 	bl	80006620 <reset_handler>
    800000b4:	d2820141 	mov	x1, #0x100a                	// #4106
    800000b8:	d53e1000 	mrs	x0, sctlr_el3
    800000bc:	aa010000 	orr	x0, x0, x1
    800000c0:	d51e1000 	msr	sctlr_el3, x0
    800000c4:	d5033fdf 	isb
    800000c8:	9400194c 	bl	800065f8 <init_cpu_data_ptr>
    800000cc:	d2804700 	mov	x0, #0x238                 	// #568
    800000d0:	d51e1100 	msr	scr_el3, x0
    800000d4:	d2900000 	mov	x0, #0x8000                	// #32768
    800000d8:	f2a00020 	movk	x0, #0x1, lsl #16
    800000dc:	d51e1320 	msr	mdcr_el3, x0
    800000e0:	d50344ff 	msr	daifclr, #0x4
    800000e4:	d2800000 	mov	x0, #0x0                   	// #0
    800000e8:	d51e1140 	msr	cptr_el3, x0
    800000ec:	940017f5 	bl	800060c0 <plat_is_my_cpu_primary>
    800000f0:	35000060 	cbnz	w0, 800000fc <do_primary_cold_boot>
    800000f4:	94001819 	bl	80006158 <plat_secondary_cold_boot_setup>
    800000f8:	94001a20 	bl	80006978 <do_panic>

00000000800000fc <do_primary_cold_boot>:
    800000fc:	9400181a 	bl	80006164 <platform_mem_init>
    80000100:	58000440 	ldr	x0, 80000188 <do_primary_cold_boot+0x8c>
    80000104:	58000461 	ldr	x1, 80000190 <do_primary_cold_boot+0x94>
    80000108:	cb000021 	sub	x1, x1, x0
    8000010c:	94001a42 	bl	80006a14 <inv_dcache_range>
    80000110:	58000440 	ldr	x0, 80000198 <do_primary_cold_boot+0x9c>
    80000114:	58000461 	ldr	x1, 800001a0 <do_primary_cold_boot+0xa4>
    80000118:	94001a8c 	bl	80006b48 <zeromem>
    8000011c:	58000460 	ldr	x0, 800001a8 <do_primary_cold_boot+0xac>
    80000120:	58000481 	ldr	x1, 800001b0 <do_primary_cold_boot+0xb4>
    80000124:	94001a89 	bl	80006b48 <zeromem>
    80000128:	d50040bf 	msr	spsel, #0x0
    8000012c:	9400192f 	bl	800065e8 <plat_set_my_stack>
    80000130:	d2800014 	mov	x20, #0x0                   	// #0
    80000134:	d2800015 	mov	x21, #0x0                   	// #0
    80000138:	d2800016 	mov	x22, #0x0                   	// #0
    8000013c:	d2800017 	mov	x23, #0x0                   	// #0
    80000140:	aa1403e0 	mov	x0, x20
    80000144:	aa1503e1 	mov	x1, x21
    80000148:	aa1603e2 	mov	x2, x22
    8000014c:	aa1703e3 	mov	x3, x23
    80000150:	940001c4 	bl	80000860 <bl31_early_platform_setup2>
    80000154:	940001f9 	bl	80000938 <bl31_plat_arch_setup>
    80000158:	94000ec6 	bl	80003c70 <bl31_main>
    8000015c:	10047520 	adr	x0, 80009000 <__RO_END_UNALIGNED__>
    80000160:	30047701 	adr	x1, 80009041 <__DATA_END__>
    80000164:	cb000021 	sub	x1, x1, x0
    80000168:	94001a1d 	bl	800069dc <clean_dcache_range>
    8000016c:	100538a0 	adr	x0, 8000a880 <__STACKS_END__>
    80000170:	10071a21 	adr	x1, 8000e4b4 <__BSS_END__>
    80000174:	cb000021 	sub	x1, x1, x0
    80000178:	94001a19 	bl	800069dc <clean_dcache_range>
    8000017c:	140019e4 	b	8000690c <el3_exit>
    80000180:	80000000 	.word	0x80000000
    80000184:	00000000 	.inst	0x00000000 ; undefined
    80000188:	80009000 	.word	0x80009000
    8000018c:	00000000 	.word	0x00000000
    80000190:	80018000 	.word	0x80018000
    80000194:	00000000 	.word	0x00000000
    80000198:	8000a880 	.word	0x8000a880
    8000019c:	00000000 	.word	0x00000000
    800001a0:	00003c34 	.word	0x00003c34
    800001a4:	00000000 	.word	0x00000000
    800001a8:	80017000 	.word	0x80017000
    800001ac:	00000000 	.word	0x00000000
    800001b0:	000000b8 	.word	0x000000b8
    800001b4:	00000000 	.word	0x00000000

00000000800001b8 <stm>:
    800001b8:	5d1b0020 	.word	0x5d1b0020
    800001bc:	00000000 	.word	0x00000000

00000000800001c0 <bl31_warm_entrypoint>:
    800001c0:	1003f200 	adr	x0, 80008000 <sync_exception_sp_el0>
    800001c4:	d51ec000 	msr	vbar_el3, x0
    800001c8:	d5033fdf 	isb
    800001cc:	94001915 	bl	80006620 <reset_handler>
    800001d0:	d2820141 	mov	x1, #0x100a                	// #4106
    800001d4:	d53e1000 	mrs	x0, sctlr_el3
    800001d8:	aa010000 	orr	x0, x0, x1
    800001dc:	d51e1000 	msr	sctlr_el3, x0
    800001e0:	d5033fdf 	isb
    800001e4:	94001905 	bl	800065f8 <init_cpu_data_ptr>
    800001e8:	d2804700 	mov	x0, #0x238                 	// #568
    800001ec:	d51e1100 	msr	scr_el3, x0
    800001f0:	d2900000 	mov	x0, #0x8000                	// #32768
    800001f4:	f2a00020 	movk	x0, #0x1, lsl #16
    800001f8:	d51e1320 	msr	mdcr_el3, x0
    800001fc:	d50344ff 	msr	daifclr, #0x4
    80000200:	d2800000 	mov	x0, #0x0                   	// #0
    80000204:	d51e1140 	msr	cptr_el3, x0
    80000208:	d50040bf 	msr	spsel, #0x0
    8000020c:	940018f7 	bl	800065e8 <plat_set_my_stack>
    80000210:	d2800020 	mov	x0, #0x1                   	// #1
    80000214:	94001a8d 	bl	80006c48 <bl31_plat_enable_mmu>
    80000218:	9400137a 	bl	80005000 <psci_warmboot_entrypoint>
    8000021c:	140019bc 	b	8000690c <el3_exit>

0000000080000220 <mx8_partition_resources>:
    80000220:	a9b97bfd 	stp	x29, x30, [sp, #-112]!
    80000224:	52800022 	mov	w2, #0x1                   	// #1
    80000228:	910003fd 	mov	x29, sp
    8000022c:	910173e1 	add	x1, sp, #0x5c
    80000230:	910163e0 	add	x0, sp, #0x58
    80000234:	a90153f3 	stp	x19, x20, [sp, #16]
    80000238:	a9025bf5 	stp	x21, x22, [sp, #32]
    8000023c:	a90363f7 	stp	x23, x24, [sp, #48]
    80000240:	a9046bf9 	stp	x25, x26, [sp, #64]
    80000244:	b9005fe2 	str	w2, [sp, #92]
    80000248:	9400053c 	bl	80001738 <imx_get_cpu_rev>
    8000024c:	350022a0 	cbnz	w0, 800006a0 <mx8_partition_resources+0x480>
    80000250:	d0000075 	adrp	x21, 8000e000 <psci_ns_context+0xb20>
    80000254:	910157e1 	add	x1, sp, #0x55
    80000258:	b0000053 	adrp	x19, 80009000 <__RO_END_UNALIGNED__>
    8000025c:	91002273 	add	x19, x19, #0x8
    80000260:	f94102a0 	ldr	x0, [x21, #512]
    80000264:	f0000037 	adrp	x23, 80007000 <vprintf+0x238>
    80000268:	910802b4 	add	x20, x21, #0x200
    8000026c:	91007a76 	add	x22, x19, #0x1e
    80000270:	910e42f7 	add	x23, x23, #0x390
    80000274:	94000ced 	bl	80003628 <sc_rm_get_partition>
    80000278:	f94102a0 	ldr	x0, [x21, #512]
    8000027c:	91015be1 	add	x1, sp, #0x56
    80000280:	52800006 	mov	w6, #0x0                   	// #0
    80000284:	52800005 	mov	w5, #0x0                   	// #0
    80000288:	52800004 	mov	w4, #0x0                   	// #0
    8000028c:	52800003 	mov	w3, #0x0                   	// #0
    80000290:	52800002 	mov	w2, #0x0                   	// #0
    80000294:	94000cc5 	bl	800035a8 <sc_rm_partition_alloc>
    80000298:	f94102a0 	ldr	x0, [x21, #512]
    8000029c:	394157e2 	ldrb	w2, [sp, #85]
    800002a0:	39415be1 	ldrb	w1, [sp, #86]
    800002a4:	94000cf3 	bl	80003670 <sc_rm_set_parent>
    800002a8:	14000004 	b	800002b8 <mx8_partition_resources+0x98>
    800002ac:	91000a73 	add	x19, x19, #0x2
    800002b0:	eb1302df 	cmp	x22, x19
    800002b4:	540001c0 	b.eq	800002ec <mx8_partition_resources+0xcc>  // b.none
    800002b8:	79400261 	ldrh	w1, [x19]
    800002bc:	52800003 	mov	w3, #0x0                   	// #0
    800002c0:	f9400280 	ldr	x0, [x20]
    800002c4:	2a0103e2 	mov	w2, w1
    800002c8:	94000d1a 	bl	80003730 <sc_rm_set_resource_movable>
    800002cc:	72001c02 	ands	w2, w0, #0xff
    800002d0:	54fffee0 	b.eq	800002ac <mx8_partition_resources+0x8c>  // b.none
    800002d4:	79400261 	ldrh	w1, [x19]
    800002d8:	aa1703e0 	mov	x0, x23
    800002dc:	91000a73 	add	x19, x19, #0x2
    800002e0:	94001730 	bl	80005fa0 <tf_log>
    800002e4:	eb1302df 	cmp	x22, x19
    800002e8:	54fffe81 	b.ne	800002b8 <mx8_partition_resources+0x98>  // b.any
    800002ec:	52800816 	mov	w22, #0x40                  	// #64
    800002f0:	f0000033 	adrp	x19, 80007000 <vprintf+0x238>
    800002f4:	d28fffd8 	mov	x24, #0x7ffe                	// #32766
    800002f8:	2a1603f7 	mov	w23, w22
    800002fc:	910f8273 	add	x19, x19, #0x3e0
    80000300:	52800001 	mov	w1, #0x0                   	// #0
    80000304:	f2a00238 	movk	x24, #0x11, lsl #16
    80000308:	39015fff 	strb	wzr, [sp, #87]
    8000030c:	d503201f 	nop
    80000310:	f9400280 	ldr	x0, [x20]
    80000314:	94000d57 	bl	80003870 <sc_rm_is_memreg_owned>
    80000318:	72001c1f 	tst	w0, #0xff
    8000031c:	540008e1 	b.ne	80000438 <mx8_partition_resources+0x218>  // b.any
    80000320:	39415fe2 	ldrb	w2, [sp, #87]
    80000324:	11000441 	add	w1, w2, #0x1
    80000328:	12001c21 	and	w1, w1, #0xff
    8000032c:	39015fe1 	strb	w1, [sp, #87]
    80000330:	7100fc3f 	cmp	w1, #0x3f
    80000334:	54fffee9 	b.ls	80000310 <mx8_partition_resources+0xf0>  // b.plast
    80000338:	f94102a0 	ldr	x0, [x21, #512]
    8000033c:	710102ff 	cmp	w23, #0x40
    80000340:	54000200 	b.eq	80000380 <mx8_partition_resources+0x160>  // b.none
    80000344:	9101a3e3 	add	x3, sp, #0x68
    80000348:	910183e2 	add	x2, sp, #0x60
    8000034c:	2a1703e1 	mov	w1, w23
    80000350:	94000d56 	bl	800038a8 <sc_rm_get_memreg_info>
    80000354:	72001c1f 	tst	w0, #0xff
    80000358:	54001d21 	b.ne	800006fc <mx8_partition_resources+0x4dc>  // b.any
    8000035c:	f94037f3 	ldr	x19, [sp, #104]
    80000360:	12afffc1 	mov	w1, #0x8001ffff            	// #-2147352577
    80000364:	f94102a0 	ldr	x0, [x21, #512]
    80000368:	eb01027f 	cmp	x19, x1
    8000036c:	54001f48 	b.hi	80000754 <mx8_partition_resources+0x534>  // b.pmore
    80000370:	f94033e2 	ldr	x2, [sp, #96]
    80000374:	b27f77e1 	mov	x1, #0x7ffffffe            	// #2147483646
    80000378:	eb01005f 	cmp	x2, x1
    8000037c:	540019a9 	b.ls	800006b0 <mx8_partition_resources+0x490>  // b.plast
    80000380:	710102df 	cmp	w22, #0x40
    80000384:	54001081 	b.ne	80000594 <mx8_partition_resources+0x374>  // b.any
    80000388:	528022c1 	mov	w1, #0x116                 	// #278
    8000038c:	94000d07 	bl	800037a8 <sc_rm_is_resource_owned>
    80000390:	72001c17 	ands	w23, w0, #0xff
    80000394:	54001361 	b.ne	80000600 <mx8_partition_resources+0x3e0>  // b.any
    80000398:	f94102a0 	ldr	x0, [x21, #512]
    8000039c:	52802541 	mov	w1, #0x12a                 	// #298
    800003a0:	94000d02 	bl	800037a8 <sc_rm_is_resource_owned>
    800003a4:	72001c18 	ands	w24, w0, #0xff
    800003a8:	540014c1 	b.ne	80000640 <mx8_partition_resources+0x420>  // b.any
    800003ac:	394157e1 	ldrb	w1, [sp, #85]
    800003b0:	52800024 	mov	w4, #0x1                   	// #1
    800003b4:	f94102a0 	ldr	x0, [x21, #512]
    800003b8:	2a0403e3 	mov	w3, w4
    800003bc:	39415be2 	ldrb	w2, [sp, #86]
    800003c0:	94000cba 	bl	800036a8 <sc_rm_move_all>
    800003c4:	72001c01 	ands	w1, w0, #0xff
    800003c8:	54001641 	b.ne	80000690 <mx8_partition_resources+0x470>  // b.any
    800003cc:	b0000053 	adrp	x19, 80009000 <__RO_END_UNALIGNED__>
    800003d0:	91000273 	add	x19, x19, #0x0
    800003d4:	f000003a 	adrp	x26, 80007000 <vprintf+0x238>
    800003d8:	91001a79 	add	x25, x19, #0x6
    800003dc:	9112c35a 	add	x26, x26, #0x4b0
    800003e0:	39415be2 	ldrb	w2, [sp, #86]
    800003e4:	528000e3 	mov	w3, #0x7                   	// #7
    800003e8:	79400261 	ldrh	w1, [x19]
    800003ec:	f9400280 	ldr	x0, [x20]
    800003f0:	94000ce0 	bl	80003770 <sc_rm_set_peripheral_permissions>
    800003f4:	72001c16 	ands	w22, w0, #0xff
    800003f8:	54000601 	b.ne	800004b8 <mx8_partition_resources+0x298>  // b.any
    800003fc:	91000a73 	add	x19, x19, #0x2
    80000400:	eb13033f 	cmp	x25, x19
    80000404:	54fffee1 	b.ne	800003e0 <mx8_partition_resources+0x1c0>  // b.any
    80000408:	350007f7 	cbnz	w23, 80000504 <mx8_partition_resources+0x2e4>
    8000040c:	35000998 	cbnz	w24, 8000053c <mx8_partition_resources+0x31c>
    80000410:	34000b16 	cbz	w22, 80000570 <mx8_partition_resources+0x350>
    80000414:	f0000020 	adrp	x0, 80007000 <vprintf+0x238>
    80000418:	91146000 	add	x0, x0, #0x518
    8000041c:	940016e1 	bl	80005fa0 <tf_log>
    80000420:	a94153f3 	ldp	x19, x20, [sp, #16]
    80000424:	a9425bf5 	ldp	x21, x22, [sp, #32]
    80000428:	a94363f7 	ldp	x23, x24, [sp, #48]
    8000042c:	a9446bf9 	ldp	x25, x26, [sp, #64]
    80000430:	a8c77bfd 	ldp	x29, x30, [sp], #112
    80000434:	d65f03c0 	ret
    80000438:	39415fe1 	ldrb	w1, [sp, #87]
    8000043c:	9101a3e3 	add	x3, sp, #0x68
    80000440:	f9400280 	ldr	x0, [x20]
    80000444:	910183e2 	add	x2, sp, #0x60
    80000448:	94000d18 	bl	800038a8 <sc_rm_get_memreg_info>
    8000044c:	72001c1f 	tst	w0, #0xff
    80000450:	39415fe1 	ldrb	w1, [sp, #87]
    80000454:	540000a0 	b.eq	80000468 <mx8_partition_resources+0x248>  // b.none
    80000458:	f0000020 	adrp	x0, 80007000 <vprintf+0x238>
    8000045c:	910f0000 	add	x0, x0, #0x3c0
    80000460:	940016d0 	bl	80005fa0 <tf_log>
    80000464:	17ffffaf 	b	80000320 <mx8_partition_resources+0x100>
    80000468:	a9460fe2 	ldp	x2, x3, [sp, #96]
    8000046c:	aa1303e0 	mov	x0, x19
    80000470:	940016cc 	bl	80005fa0 <tf_log>
    80000474:	f94033e0 	ldr	x0, [sp, #96]
    80000478:	d2b00001 	mov	x1, #0x80000000            	// #2147483648
    8000047c:	eb01001f 	cmp	x0, x1
    80000480:	54000268 	b.hi	800004cc <mx8_partition_resources+0x2ac>  // b.pmore
    80000484:	f94037e1 	ldr	x1, [sp, #104]
    80000488:	12afffc3 	mov	w3, #0x8001ffff            	// #-2147352577
    8000048c:	39415fe2 	ldrb	w2, [sp, #87]
    80000490:	eb03003f 	cmp	x1, x3
    80000494:	54000342 	b.cs	800004fc <mx8_partition_resources+0x2dc>  // b.hs, b.nlast
    80000498:	b9405fe3 	ldr	w3, [sp, #92]
    8000049c:	7100007f 	cmp	w3, #0x0
    800004a0:	fa401800 	ccmp	x0, #0x0, #0x0, ne  // ne = any
    800004a4:	54000161 	b.ne	800004d0 <mx8_partition_resources+0x2b0>  // b.any
    800004a8:	eb18003f 	cmp	x1, x24
    800004ac:	54000129 	b.ls	800004d0 <mx8_partition_resources+0x2b0>  // b.plast
    800004b0:	2a0203f6 	mov	w22, w2
    800004b4:	17ffff9c 	b	80000324 <mx8_partition_resources+0x104>
    800004b8:	79400261 	ldrh	w1, [x19]
    800004bc:	2a1603e2 	mov	w2, w22
    800004c0:	aa1a03e0 	mov	x0, x26
    800004c4:	940016b7 	bl	80005fa0 <tf_log>
    800004c8:	17ffffcd 	b	800003fc <mx8_partition_resources+0x1dc>
    800004cc:	39415fe2 	ldrb	w2, [sp, #87]
    800004d0:	39415be1 	ldrb	w1, [sp, #86]
    800004d4:	f9400280 	ldr	x0, [x20]
    800004d8:	94000cd8 	bl	80003838 <sc_rm_assign_memreg>
    800004dc:	72001c03 	ands	w3, w0, #0xff
    800004e0:	54fff200 	b.eq	80000320 <mx8_partition_resources+0x100>  // b.none
    800004e4:	a9460be1 	ldp	x1, x2, [sp, #96]
    800004e8:	f0000020 	adrp	x0, 80007000 <vprintf+0x238>
    800004ec:	91100000 	add	x0, x0, #0x400
    800004f0:	940016ac 	bl	80005fa0 <tf_log>
    800004f4:	39415fe2 	ldrb	w2, [sp, #87]
    800004f8:	17ffff8b 	b	80000324 <mx8_partition_resources+0x104>
    800004fc:	2a0203f7 	mov	w23, w2
    80000500:	17ffff89 	b	80000324 <mx8_partition_resources+0x104>
    80000504:	f94102a0 	ldr	x0, [x21, #512]
    80000508:	528022c2 	mov	w2, #0x116                 	// #278
    8000050c:	52800023 	mov	w3, #0x1                   	// #1
    80000510:	2a0203e1 	mov	w1, w2
    80000514:	94000c87 	bl	80003730 <sc_rm_set_resource_movable>
    80000518:	72001c02 	ands	w2, w0, #0xff
    8000051c:	54000fc1 	b.ne	80000714 <mx8_partition_resources+0x4f4>  // b.any
    80000520:	f94102a0 	ldr	x0, [x21, #512]
    80000524:	528022c2 	mov	w2, #0x116                 	// #278
    80000528:	39415be1 	ldrb	w1, [sp, #86]
    8000052c:	94000c73 	bl	800036f8 <sc_rm_assign_resource>
    80000530:	72001c02 	ands	w2, w0, #0xff
    80000534:	54001041 	b.ne	8000073c <mx8_partition_resources+0x51c>  // b.any
    80000538:	340001d8 	cbz	w24, 80000570 <mx8_partition_resources+0x350>
    8000053c:	f94102a0 	ldr	x0, [x21, #512]
    80000540:	52802542 	mov	w2, #0x12a                 	// #298
    80000544:	52800023 	mov	w3, #0x1                   	// #1
    80000548:	2a0203e1 	mov	w1, w2
    8000054c:	94000c79 	bl	80003730 <sc_rm_set_resource_movable>
    80000550:	72001c02 	ands	w2, w0, #0xff
    80000554:	54001241 	b.ne	8000079c <mx8_partition_resources+0x57c>  // b.any
    80000558:	f94102a0 	ldr	x0, [x21, #512]
    8000055c:	52802542 	mov	w2, #0x12a                 	// #298
    80000560:	39415be1 	ldrb	w1, [sp, #86]
    80000564:	94000c65 	bl	800036f8 <sc_rm_assign_resource>
    80000568:	72001c02 	ands	w2, w0, #0xff
    8000056c:	540010e1 	b.ne	80000788 <mx8_partition_resources+0x568>  // b.any
    80000570:	f0000020 	adrp	x0, 80007000 <vprintf+0x238>
    80000574:	9114c000 	add	x0, x0, #0x530
    80000578:	9400168a 	bl	80005fa0 <tf_log>
    8000057c:	a94153f3 	ldp	x19, x20, [sp, #16]
    80000580:	a9425bf5 	ldp	x21, x22, [sp, #32]
    80000584:	a94363f7 	ldp	x23, x24, [sp, #48]
    80000588:	a9446bf9 	ldp	x25, x26, [sp, #64]
    8000058c:	a8c77bfd 	ldp	x29, x30, [sp], #112
    80000590:	d65f03c0 	ret
    80000594:	9101a3e3 	add	x3, sp, #0x68
    80000598:	910183e2 	add	x2, sp, #0x60
    8000059c:	2a1603e1 	mov	w1, w22
    800005a0:	94000cc2 	bl	800038a8 <sc_rm_get_memreg_info>
    800005a4:	72001c1f 	tst	w0, #0xff
    800005a8:	540009e1 	b.ne	800006e4 <mx8_partition_resources+0x4c4>  // b.any
    800005ac:	f94037f3 	ldr	x19, [sp, #104]
    800005b0:	d28fffe1 	mov	x1, #0x7fff                	// #32767
    800005b4:	f2a00221 	movk	x1, #0x11, lsl #16
    800005b8:	f94102a0 	ldr	x0, [x21, #512]
    800005bc:	eb01027f 	cmp	x19, x1
    800005c0:	54ffee49 	b.ls	80000388 <mx8_partition_resources+0x168>  // b.plast
    800005c4:	d2900002 	mov	x2, #0x8000                	// #32768
    800005c8:	aa1303e3 	mov	x3, x19
    800005cc:	91015fe1 	add	x1, sp, #0x57
    800005d0:	f2a00222 	movk	x2, #0x11, lsl #16
    800005d4:	94000c83 	bl	800037e0 <sc_rm_memreg_alloc>
    800005d8:	72001c1f 	tst	w0, #0xff
    800005dc:	54000ea0 	b.eq	800007b0 <mx8_partition_resources+0x590>  // b.none
    800005e0:	d2900001 	mov	x1, #0x8000                	// #32768
    800005e4:	aa1303e2 	mov	x2, x19
    800005e8:	f2a00221 	movk	x1, #0x11, lsl #16
    800005ec:	f0000020 	adrp	x0, 80007000 <vprintf+0x238>
    800005f0:	9110e000 	add	x0, x0, #0x438
    800005f4:	9400166b 	bl	80005fa0 <tf_log>
    800005f8:	f94102a0 	ldr	x0, [x21, #512]
    800005fc:	17ffff63 	b	80000388 <mx8_partition_resources+0x168>
    80000600:	f94102a0 	ldr	x0, [x21, #512]
    80000604:	528022c2 	mov	w2, #0x116                 	// #278
    80000608:	52800003 	mov	w3, #0x0                   	// #0
    8000060c:	2a0203e1 	mov	w1, w2
    80000610:	94000c48 	bl	80003730 <sc_rm_set_resource_movable>
    80000614:	72001c02 	ands	w2, w0, #0xff
    80000618:	54ffec00 	b.eq	80000398 <mx8_partition_resources+0x178>  // b.none
    8000061c:	528022c1 	mov	w1, #0x116                 	// #278
    80000620:	f0000020 	adrp	x0, 80007000 <vprintf+0x238>
    80000624:	910e4000 	add	x0, x0, #0x390
    80000628:	9400165e 	bl	80005fa0 <tf_log>
    8000062c:	f94102a0 	ldr	x0, [x21, #512]
    80000630:	52802541 	mov	w1, #0x12a                 	// #298
    80000634:	94000c5d 	bl	800037a8 <sc_rm_is_resource_owned>
    80000638:	72001c18 	ands	w24, w0, #0xff
    8000063c:	54ffeb80 	b.eq	800003ac <mx8_partition_resources+0x18c>  // b.none
    80000640:	f94102a0 	ldr	x0, [x21, #512]
    80000644:	52802542 	mov	w2, #0x12a                 	// #298
    80000648:	52800003 	mov	w3, #0x0                   	// #0
    8000064c:	2a0203e1 	mov	w1, w2
    80000650:	94000c38 	bl	80003730 <sc_rm_set_resource_movable>
    80000654:	72001c02 	ands	w2, w0, #0xff
    80000658:	54ffeaa0 	b.eq	800003ac <mx8_partition_resources+0x18c>  // b.none
    8000065c:	52802541 	mov	w1, #0x12a                 	// #298
    80000660:	f0000020 	adrp	x0, 80007000 <vprintf+0x238>
    80000664:	910e4000 	add	x0, x0, #0x390
    80000668:	9400164e 	bl	80005fa0 <tf_log>
    8000066c:	394157e1 	ldrb	w1, [sp, #85]
    80000670:	52800024 	mov	w4, #0x1                   	// #1
    80000674:	f94102a0 	ldr	x0, [x21, #512]
    80000678:	2a0403e3 	mov	w3, w4
    8000067c:	39415be2 	ldrb	w2, [sp, #86]
    80000680:	94000c0a 	bl	800036a8 <sc_rm_move_all>
    80000684:	72001c01 	ands	w1, w0, #0xff
    80000688:	54ffea20 	b.eq	800003cc <mx8_partition_resources+0x1ac>  // b.none
    8000068c:	d503201f 	nop
    80000690:	f0000020 	adrp	x0, 80007000 <vprintf+0x238>
    80000694:	91126000 	add	x0, x0, #0x498
    80000698:	94001642 	bl	80005fa0 <tf_log>
    8000069c:	17ffff4c 	b	800003cc <mx8_partition_resources+0x1ac>
    800006a0:	f0000020 	adrp	x0, 80007000 <vprintf+0x238>
    800006a4:	910dc000 	add	x0, x0, #0x370
    800006a8:	9400163e 	bl	80005fa0 <tf_log>
    800006ac:	17fffee9 	b	80000250 <mx8_partition_resources+0x30>
    800006b0:	91015fe1 	add	x1, sp, #0x57
    800006b4:	b2407be3 	mov	x3, #0x7fffffff            	// #2147483647
    800006b8:	94000c4a 	bl	800037e0 <sc_rm_memreg_alloc>
    800006bc:	72001c1f 	tst	w0, #0xff
    800006c0:	54000c41 	b.ne	80000848 <mx8_partition_resources+0x628>  // b.any
    800006c4:	f94102a0 	ldr	x0, [x21, #512]
    800006c8:	39415be1 	ldrb	w1, [sp, #86]
    800006cc:	39415fe2 	ldrb	w2, [sp, #87]
    800006d0:	94000c5a 	bl	80003838 <sc_rm_assign_memreg>
    800006d4:	72001c1f 	tst	w0, #0xff
    800006d8:	540008c1 	b.ne	800007f0 <mx8_partition_resources+0x5d0>  // b.any
    800006dc:	f94102a0 	ldr	x0, [x21, #512]
    800006e0:	17ffff28 	b	80000380 <mx8_partition_resources+0x160>
    800006e4:	2a1603e1 	mov	w1, w22
    800006e8:	f0000020 	adrp	x0, 80007000 <vprintf+0x238>
    800006ec:	910f0000 	add	x0, x0, #0x3c0
    800006f0:	9400162c 	bl	80005fa0 <tf_log>
    800006f4:	f94102a0 	ldr	x0, [x21, #512]
    800006f8:	17ffff24 	b	80000388 <mx8_partition_resources+0x168>
    800006fc:	2a1703e1 	mov	w1, w23
    80000700:	f0000020 	adrp	x0, 80007000 <vprintf+0x238>
    80000704:	910f0000 	add	x0, x0, #0x3c0
    80000708:	94001626 	bl	80005fa0 <tf_log>
    8000070c:	f94102a0 	ldr	x0, [x21, #512]
    80000710:	17ffff1c 	b	80000380 <mx8_partition_resources+0x160>
    80000714:	528022c1 	mov	w1, #0x116                 	// #278
    80000718:	f0000020 	adrp	x0, 80007000 <vprintf+0x238>
    8000071c:	910e4000 	add	x0, x0, #0x390
    80000720:	94001620 	bl	80005fa0 <tf_log>
    80000724:	f94102a0 	ldr	x0, [x21, #512]
    80000728:	528022c2 	mov	w2, #0x116                 	// #278
    8000072c:	39415be1 	ldrb	w1, [sp, #86]
    80000730:	94000bf2 	bl	800036f8 <sc_rm_assign_resource>
    80000734:	72001c02 	ands	w2, w0, #0xff
    80000738:	54fff000 	b.eq	80000538 <mx8_partition_resources+0x318>  // b.none
    8000073c:	f0000020 	adrp	x0, 80007000 <vprintf+0x238>
    80000740:	528022c1 	mov	w1, #0x116                 	// #278
    80000744:	9113a000 	add	x0, x0, #0x4e8
    80000748:	94001616 	bl	80005fa0 <tf_log>
    8000074c:	34ffe658 	cbz	w24, 80000414 <mx8_partition_resources+0x1f4>
    80000750:	17ffff7b 	b	8000053c <mx8_partition_resources+0x31c>
    80000754:	aa1303e3 	mov	x3, x19
    80000758:	91015fe1 	add	x1, sp, #0x57
    8000075c:	d2b00042 	mov	x2, #0x80020000            	// #2147614720
    80000760:	94000c20 	bl	800037e0 <sc_rm_memreg_alloc>
    80000764:	72001c1f 	tst	w0, #0xff
    80000768:	54000340 	b.eq	800007d0 <mx8_partition_resources+0x5b0>  // b.none
    8000076c:	aa1303e2 	mov	x2, x19
    80000770:	f0000020 	adrp	x0, 80007000 <vprintf+0x238>
    80000774:	d2b00041 	mov	x1, #0x80020000            	// #2147614720
    80000778:	9110e000 	add	x0, x0, #0x438
    8000077c:	94001609 	bl	80005fa0 <tf_log>
    80000780:	f94102a0 	ldr	x0, [x21, #512]
    80000784:	17fffefb 	b	80000370 <mx8_partition_resources+0x150>
    80000788:	f0000020 	adrp	x0, 80007000 <vprintf+0x238>
    8000078c:	52802541 	mov	w1, #0x12a                 	// #298
    80000790:	9113a000 	add	x0, x0, #0x4e8
    80000794:	94001603 	bl	80005fa0 <tf_log>
    80000798:	17ffff1f 	b	80000414 <mx8_partition_resources+0x1f4>
    8000079c:	f0000020 	adrp	x0, 80007000 <vprintf+0x238>
    800007a0:	52802541 	mov	w1, #0x12a                 	// #298
    800007a4:	910e4000 	add	x0, x0, #0x390
    800007a8:	940015fe 	bl	80005fa0 <tf_log>
    800007ac:	17ffff6b 	b	80000558 <mx8_partition_resources+0x338>
    800007b0:	f94102a0 	ldr	x0, [x21, #512]
    800007b4:	39415be1 	ldrb	w1, [sp, #86]
    800007b8:	39415fe2 	ldrb	w2, [sp, #87]
    800007bc:	94000c1f 	bl	80003838 <sc_rm_assign_memreg>
    800007c0:	72001c1f 	tst	w0, #0xff
    800007c4:	54000321 	b.ne	80000828 <mx8_partition_resources+0x608>  // b.any
    800007c8:	f94102a0 	ldr	x0, [x21, #512]
    800007cc:	17fffeef 	b	80000388 <mx8_partition_resources+0x168>
    800007d0:	f94102a0 	ldr	x0, [x21, #512]
    800007d4:	39415be1 	ldrb	w1, [sp, #86]
    800007d8:	39415fe2 	ldrb	w2, [sp, #87]
    800007dc:	94000c17 	bl	80003838 <sc_rm_assign_memreg>
    800007e0:	72001c1f 	tst	w0, #0xff
    800007e4:	54000141 	b.ne	8000080c <mx8_partition_resources+0x5ec>  // b.any
    800007e8:	f94102a0 	ldr	x0, [x21, #512]
    800007ec:	17fffee1 	b	80000370 <mx8_partition_resources+0x150>
    800007f0:	f94033e1 	ldr	x1, [sp, #96]
    800007f4:	f0000020 	adrp	x0, 80007000 <vprintf+0x238>
    800007f8:	b2407be2 	mov	x2, #0x7fffffff            	// #2147483647
    800007fc:	9111a000 	add	x0, x0, #0x468
    80000800:	940015e8 	bl	80005fa0 <tf_log>
    80000804:	f94102a0 	ldr	x0, [x21, #512]
    80000808:	17fffede 	b	80000380 <mx8_partition_resources+0x160>
    8000080c:	aa1303e2 	mov	x2, x19
    80000810:	f0000020 	adrp	x0, 80007000 <vprintf+0x238>
    80000814:	d2b00041 	mov	x1, #0x80020000            	// #2147614720
    80000818:	9111a000 	add	x0, x0, #0x468
    8000081c:	940015e1 	bl	80005fa0 <tf_log>
    80000820:	f94102a0 	ldr	x0, [x21, #512]
    80000824:	17fffed3 	b	80000370 <mx8_partition_resources+0x150>
    80000828:	d2900001 	mov	x1, #0x8000                	// #32768
    8000082c:	aa1303e2 	mov	x2, x19
    80000830:	f2a00221 	movk	x1, #0x11, lsl #16
    80000834:	f0000020 	adrp	x0, 80007000 <vprintf+0x238>
    80000838:	9111a000 	add	x0, x0, #0x468
    8000083c:	940015d9 	bl	80005fa0 <tf_log>
    80000840:	f94102a0 	ldr	x0, [x21, #512]
    80000844:	17fffed1 	b	80000388 <mx8_partition_resources+0x168>
    80000848:	f94033e1 	ldr	x1, [sp, #96]
    8000084c:	f0000020 	adrp	x0, 80007000 <vprintf+0x238>
    80000850:	b2407be2 	mov	x2, #0x7fffffff            	// #2147483647
    80000854:	9110e000 	add	x0, x0, #0x438
    80000858:	940015d2 	bl	80005fa0 <tf_log>
    8000085c:	17ffff9a 	b	800006c4 <mx8_partition_resources+0x4a4>

0000000080000860 <bl31_early_platform_setup2>:
    80000860:	a9be7bfd 	stp	x29, x30, [sp, #-32]!
    80000864:	d2aba361 	mov	x1, #0x5d1b0000            	// #1562050560
    80000868:	910003fd 	mov	x29, sp
    8000086c:	f9000bf3 	str	x19, [sp, #16]
    80000870:	d0000073 	adrp	x19, 8000e000 <psci_ns_context+0xb20>
    80000874:	91080260 	add	x0, x19, #0x200
    80000878:	940009de 	bl	80002ff0 <sc_ipc_open>
    8000087c:	72001c1f 	tst	w0, #0xff
    80000880:	54000561 	b.ne	8000092c <bl31_early_platform_setup2+0xcc>  // b.any
    80000884:	f9410260 	ldr	x0, [x19, #512]
    80000888:	52800062 	mov	w2, #0x3                   	// #3
    8000088c:	52801ac1 	mov	w1, #0xd6                  	// #214
    80000890:	94000aa8 	bl	80003330 <sc_pm_set_resource_power_mode>
    80000894:	f9410260 	ldr	x0, [x19, #512]
    80000898:	52800062 	mov	w2, #0x3                   	// #3
    8000089c:	528019e1 	mov	w1, #0xcf                  	// #207
    800008a0:	94000aa4 	bl	80003330 <sc_pm_set_resource_power_mode>
    800008a4:	f9410260 	ldr	x0, [x19, #512]
    800008a8:	52800004 	mov	w4, #0x0                   	// #0
    800008ac:	52800023 	mov	w3, #0x1                   	// #1
    800008b0:	52800042 	mov	w2, #0x2                   	// #2
    800008b4:	528019e1 	mov	w1, #0xcf                  	// #207
    800008b8:	94000afe 	bl	800034b0 <sc_pm_clock_enable>
    800008bc:	d2abaa81 	mov	x1, #0x5d540000            	// #1565786112
    800008c0:	b9400020 	ldr	w0, [x1]
    800008c4:	32070000 	orr	w0, w0, #0x2000000
    800008c8:	b9000020 	str	w0, [x1]
    800008cc:	97fffe55 	bl	80000220 <mx8_partition_resources>
    800008d0:	d0000043 	adrp	x3, 8000a000 <__STACKS_START__+0xf80>
    800008d4:	91236063 	add	x3, x3, #0x8d8
    800008d8:	d2b00040 	mov	x0, #0x80020000            	// #2147614720
    800008dc:	f9000460 	str	x0, [x3, #8]
    800008e0:	d5380400 	mrs	x0, id_aa64pfr0_el1
    800008e4:	b9400465 	ldr	w5, [x3, #4]
    800008e8:	f2780c1f 	tst	x0, #0xf00
    800008ec:	52807924 	mov	w4, #0x3c9                 	// #969
    800008f0:	528078a0 	mov	w0, #0x3c5                 	// #965
    800008f4:	320000a5 	orr	w5, w5, #0x1
    800008f8:	1a801084 	csel	w4, w4, w0, ne  // ne = any
    800008fc:	52800042 	mov	w2, #0x2                   	// #2
    80000900:	d2aa4120 	mov	x0, #0x52090000            	// #1376321536
    80000904:	f0000021 	adrp	x1, 80007000 <vprintf+0x238>
    80000908:	91156021 	add	x1, x1, #0x558
    8000090c:	b9000465 	str	w5, [x3, #4]
    80000910:	b9001064 	str	w4, [x3, #16]
    80000914:	94000559 	bl	80001e78 <cci_init>
    80000918:	d53800a0 	mrs	x0, mpidr_el1
    8000091c:	f9400bf3 	ldr	x19, [sp, #16]
    80000920:	53083c00 	ubfx	w0, w0, #8, #8
    80000924:	a8c27bfd 	ldp	x29, x30, [sp], #32
    80000928:	1400055a 	b	80001e90 <cci_enable_snoop_dvm_reqs>
    8000092c:	940016ad 	bl	800063e0 <console_flush>
    80000930:	94001812 	bl	80006978 <do_panic>
    80000934:	00000000 	.inst	0x00000000 ; undefined

0000000080000938 <bl31_plat_arch_setup>:
    80000938:	a9bd7bfd 	stp	x29, x30, [sp, #-48]!
    8000093c:	90000001 	adrp	x1, 80000000 <bl31_entrypoint>
    80000940:	b0000042 	adrp	x2, 80009000 <__RO_END_UNALIGNED__>
    80000944:	910003fd 	mov	x29, sp
    80000948:	91000021 	add	x1, x1, #0x0
    8000094c:	91000042 	add	x2, x2, #0x0
    80000950:	a90153f3 	stp	x19, x20, [sp, #16]
    80000954:	900000d4 	adrp	x20, 80018000 <__BL31_END__>
    80000958:	91000294 	add	x20, x20, #0x0
    8000095c:	a9025bf5 	stp	x21, x22, [sp, #32]
    80000960:	b0000056 	adrp	x22, 80009000 <__RO_END_UNALIGNED__>
    80000964:	910002d6 	add	x22, x22, #0x0
    80000968:	cb010042 	sub	x2, x2, x1
    8000096c:	aa0103e0 	mov	x0, x1
    80000970:	cb160294 	sub	x20, x20, x22
    80000974:	52800043 	mov	w3, #0x2                   	// #2
    80000978:	940004c6 	bl	80001c90 <mmap_add_region>
    8000097c:	f00000b5 	adrp	x21, 80017000 <sc_ipc_bakery_lock>
    80000980:	aa1403e2 	mov	x2, x20
    80000984:	aa1603e1 	mov	x1, x22
    80000988:	52800143 	mov	w3, #0xa                   	// #10
    8000098c:	910002b5 	add	x21, x21, #0x0
    80000990:	aa1603e0 	mov	x0, x22
    80000994:	900000d3 	adrp	x19, 80018000 <__BL31_END__>
    80000998:	940004be 	bl	80001c90 <mmap_add_region>
    8000099c:	91000273 	add	x19, x19, #0x0
    800009a0:	cb150273 	sub	x19, x19, x21
    800009a4:	f0000020 	adrp	x0, 80007000 <vprintf+0x238>
    800009a8:	91158000 	add	x0, x0, #0x560
    800009ac:	940004fd 	bl	80001da0 <mmap_add>
    800009b0:	aa1303e2 	mov	x2, x19
    800009b4:	aa1503e1 	mov	x1, x21
    800009b8:	aa1503e0 	mov	x0, x21
    800009bc:	52800103 	mov	w3, #0x8                   	// #8
    800009c0:	940004b4 	bl	80001c90 <mmap_add_region>
    800009c4:	940003f3 	bl	80001990 <init_xlat_tables>
    800009c8:	a94153f3 	ldp	x19, x20, [sp, #16]
    800009cc:	52800000 	mov	w0, #0x0                   	// #0
    800009d0:	a9425bf5 	ldp	x21, x22, [sp, #32]
    800009d4:	a8c37bfd 	ldp	x29, x30, [sp], #48
    800009d8:	1400040c 	b	80001a08 <enable_mmu_el3>
    800009dc:	00000000 	.inst	0x00000000 ; undefined

00000000800009e0 <bl31_platform_setup>:
    800009e0:	a9bf7bfd 	stp	x29, x30, [sp, #-16]!
    800009e4:	910003fd 	mov	x29, sp
    800009e8:	9400093e 	bl	80002ee0 <plat_gic_driver_init>
    800009ec:	a8c17bfd 	ldp	x29, x30, [sp], #16
    800009f0:	14000940 	b	80002ef0 <plat_gic_init>
    800009f4:	00000000 	.inst	0x00000000 ; undefined

00000000800009f8 <bl31_plat_get_next_image_ep_info>:
    800009f8:	7100041f 	cmp	w0, #0x1
    800009fc:	540000c0 	b.eq	80000a14 <bl31_plat_get_next_image_ep_info+0x1c>  // b.none
    80000a00:	7100001f 	cmp	w0, #0x0
    80000a04:	d0000040 	adrp	x0, 8000a000 <__STACKS_START__+0xf80>
    80000a08:	91220000 	add	x0, x0, #0x880
    80000a0c:	9a9f0000 	csel	x0, x0, xzr, eq  // eq = none
    80000a10:	d65f03c0 	ret
    80000a14:	d0000040 	adrp	x0, 8000a000 <__STACKS_START__+0xf80>
    80000a18:	91236000 	add	x0, x0, #0x8d8
    80000a1c:	d65f03c0 	ret

0000000080000a20 <plat_get_syscnt_freq2>:
    80000a20:	52824000 	mov	w0, #0x1200                	// #4608
    80000a24:	72a00f40 	movk	w0, #0x7a, lsl #16
    80000a28:	d65f03c0 	ret
    80000a2c:	00000000 	.inst	0x00000000 ; undefined

0000000080000a30 <bl31_plat_runtime_setup>:
    80000a30:	d65f03c0 	ret
    80000a34:	00000000 	.inst	0x00000000 ; undefined

0000000080000a38 <imx_validate_ns_entrypoint>:
    80000a38:	52800000 	mov	w0, #0x0                   	// #0
    80000a3c:	d65f03c0 	ret

0000000080000a40 <imx_pwr_domain_on>:
    80000a40:	a9bd7bfd 	stp	x29, x30, [sp, #-48]!
    80000a44:	aa0003e2 	mov	x2, x0
    80000a48:	910003fd 	mov	x29, sp
    80000a4c:	a9025bf5 	stp	x21, x22, [sp, #32]
    80000a50:	d0000075 	adrp	x21, 8000e000 <psci_ns_context+0xb20>
    80000a54:	72181c5f 	tst	w2, #0xff00
    80000a58:	f94102a0 	ldr	x0, [x21, #512]
    80000a5c:	a90153f3 	stp	x19, x20, [sp, #16]
    80000a60:	528000b4 	mov	w20, #0x5                   	// #5
    80000a64:	1a9403f4 	csel	w20, wzr, w20, eq  // eq = none
    80000a68:	53083c56 	ubfx	w22, w2, #8, #8
    80000a6c:	2a1403e1 	mov	w1, w20
    80000a70:	12001c53 	and	w19, w2, #0xff
    80000a74:	52800062 	mov	w2, #0x3                   	// #3
    80000a78:	94000a2e 	bl	80003330 <sc_pm_set_resource_power_mode>
    80000a7c:	f94102a0 	ldr	x0, [x21, #512]
    80000a80:	2a1403e1 	mov	w1, w20
    80000a84:	0b160a73 	add	w19, w19, w22, lsl #2
    80000a88:	52800062 	mov	w2, #0x3                   	// #3
    80000a8c:	52800016 	mov	w22, #0x0                   	// #0
    80000a90:	94000a36 	bl	80003368 <sc_pm_req_low_power_mode>
    80000a94:	2a1303e3 	mov	w3, w19
    80000a98:	f0000021 	adrp	x1, 80007000 <vprintf+0x238>
    80000a9c:	91176021 	add	x1, x1, #0x5d8
    80000aa0:	52800062 	mov	w2, #0x3                   	// #3
    80000aa4:	f94102a0 	ldr	x0, [x21, #512]
    80000aa8:	b8637834 	ldr	w20, [x1, x3, lsl #2]
    80000aac:	12003e94 	and	w20, w20, #0xffff
    80000ab0:	2a1403e1 	mov	w1, w20
    80000ab4:	94000a1f 	bl	80003330 <sc_pm_set_resource_power_mode>
    80000ab8:	72001c1f 	tst	w0, #0xff
    80000abc:	540001a1 	b.ne	80000af0 <imx_pwr_domain_on+0xb0>  // b.any
    80000ac0:	f94102a0 	ldr	x0, [x21, #512]
    80000ac4:	2a1403e1 	mov	w1, w20
    80000ac8:	d2b00003 	mov	x3, #0x80000000            	// #2147483648
    80000acc:	52800022 	mov	w2, #0x1                   	// #1
    80000ad0:	94000aa4 	bl	80003560 <sc_pm_cpu_start>
    80000ad4:	72001c1f 	tst	w0, #0xff
    80000ad8:	54000181 	b.ne	80000b08 <imx_pwr_domain_on+0xc8>  // b.any
    80000adc:	2a1603e0 	mov	w0, w22
    80000ae0:	a94153f3 	ldp	x19, x20, [sp, #16]
    80000ae4:	a9425bf5 	ldp	x21, x22, [sp, #32]
    80000ae8:	a8c37bfd 	ldp	x29, x30, [sp], #48
    80000aec:	d65f03c0 	ret
    80000af0:	2a1303e1 	mov	w1, w19
    80000af4:	128000b6 	mov	w22, #0xfffffffa            	// #-6
    80000af8:	f0000020 	adrp	x0, 80007000 <vprintf+0x238>
    80000afc:	91168000 	add	x0, x0, #0x5a0
    80000b00:	94001528 	bl	80005fa0 <tf_log>
    80000b04:	17ffffef 	b	80000ac0 <imx_pwr_domain_on+0x80>
    80000b08:	2a1303e1 	mov	w1, w19
    80000b0c:	128000b6 	mov	w22, #0xfffffffa            	// #-6
    80000b10:	f0000020 	adrp	x0, 80007000 <vprintf+0x238>
    80000b14:	91170000 	add	x0, x0, #0x5c0
    80000b18:	94001522 	bl	80005fa0 <tf_log>
    80000b1c:	17fffff0 	b	80000adc <imx_pwr_domain_on+0x9c>

0000000080000b20 <imx_pwr_domain_on_finish>:
    80000b20:	a9bf7bfd 	stp	x29, x30, [sp, #-16]!
    80000b24:	910003fd 	mov	x29, sp
    80000b28:	d53800a2 	mrs	x2, mpidr_el1
    80000b2c:	39400401 	ldrb	w1, [x0, #1]
    80000b30:	7100083f 	cmp	w1, #0x2
    80000b34:	54000080 	b.eq	80000b44 <imx_pwr_domain_on_finish+0x24>  // b.none
    80000b38:	94000902 	bl	80002f40 <plat_gic_pcpu_init>
    80000b3c:	a8c17bfd 	ldp	x29, x30, [sp], #16
    80000b40:	140008f4 	b	80002f10 <plat_gic_cpuif_enable>
    80000b44:	53083c40 	ubfx	w0, w2, #8, #8
    80000b48:	940004d2 	bl	80001e90 <cci_enable_snoop_dvm_reqs>
    80000b4c:	940008fd 	bl	80002f40 <plat_gic_pcpu_init>
    80000b50:	a8c17bfd 	ldp	x29, x30, [sp], #16
    80000b54:	140008ef 	b	80002f10 <plat_gic_cpuif_enable>

0000000080000b58 <imx_pwr_domain_off>:
    80000b58:	a9bd7bfd 	stp	x29, x30, [sp, #-48]!
    80000b5c:	910003fd 	mov	x29, sp
    80000b60:	a90153f3 	stp	x19, x20, [sp, #16]
    80000b64:	aa0003f4 	mov	x20, x0
    80000b68:	a9025bf5 	stp	x21, x22, [sp, #32]
    80000b6c:	d53800b3 	mrs	x19, mpidr_el1
    80000b70:	53083e75 	ubfx	w21, w19, #8, #8
    80000b74:	12001e73 	and	w19, w19, #0xff
    80000b78:	940008ec 	bl	80002f28 <plat_gic_cpuif_disable>
    80000b7c:	d0000076 	adrp	x22, 8000e000 <psci_ns_context+0xb20>
    80000b80:	0b150a73 	add	w19, w19, w21, lsl #2
    80000b84:	f0000021 	adrp	x1, 80007000 <vprintf+0x238>
    80000b88:	91176021 	add	x1, x1, #0x5d8
    80000b8c:	52800003 	mov	w3, #0x0                   	// #0
    80000b90:	f94102c0 	ldr	x0, [x22, #512]
    80000b94:	52800002 	mov	w2, #0x0                   	// #0
    80000b98:	b8737821 	ldr	w1, [x1, x19, lsl #2]
    80000b9c:	94000a01 	bl	800033a0 <sc_pm_req_cpu_low_power_mode>
    80000ba0:	39400680 	ldrb	w0, [x20, #1]
    80000ba4:	7100081f 	cmp	w0, #0x2
    80000ba8:	540000a0 	b.eq	80000bbc <imx_pwr_domain_off+0x64>  // b.none
    80000bac:	a94153f3 	ldp	x19, x20, [sp, #16]
    80000bb0:	a9425bf5 	ldp	x21, x22, [sp, #32]
    80000bb4:	a8c37bfd 	ldp	x29, x30, [sp], #48
    80000bb8:	d65f03c0 	ret
    80000bbc:	2a1503e0 	mov	w0, w21
    80000bc0:	940004c4 	bl	80001ed0 <cci_disable_snoop_dvm_reqs>
    80000bc4:	710002bf 	cmp	w21, #0x0
    80000bc8:	528000a1 	mov	w1, #0x5                   	// #5
    80000bcc:	f94102c0 	ldr	x0, [x22, #512]
    80000bd0:	1a9f1021 	csel	w1, w1, wzr, ne  // ne = any
    80000bd4:	a94153f3 	ldp	x19, x20, [sp, #16]
    80000bd8:	52800002 	mov	w2, #0x0                   	// #0
    80000bdc:	a9425bf5 	ldp	x21, x22, [sp, #32]
    80000be0:	a8c37bfd 	ldp	x29, x30, [sp], #48
    80000be4:	140009e1 	b	80003368 <sc_pm_req_low_power_mode>

0000000080000be8 <imx_domain_suspend>:
    80000be8:	a9bc7bfd 	stp	x29, x30, [sp, #-64]!
    80000bec:	910003fd 	mov	x29, sp
    80000bf0:	a90153f3 	stp	x19, x20, [sp, #16]
    80000bf4:	aa0003f3 	mov	x19, x0
    80000bf8:	a9025bf5 	stp	x21, x22, [sp, #32]
    80000bfc:	f9001bf7 	str	x23, [sp, #48]
    80000c00:	d53800a0 	mrs	x0, mpidr_el1
    80000c04:	39400261 	ldrb	w1, [x19]
    80000c08:	53083c15 	ubfx	w21, w0, #8, #8
    80000c0c:	12001c14 	and	w20, w0, #0xff
    80000c10:	7100083f 	cmp	w1, #0x2
    80000c14:	54000220 	b.eq	80000c58 <imx_domain_suspend+0x70>  // b.none
    80000c18:	d5033f9f 	dsb	sy
    80000c1c:	d53e1100 	mrs	x0, scr_el3
    80000c20:	b27e0000 	orr	x0, x0, #0x4
    80000c24:	d51e1100 	msr	scr_el3, x0
    80000c28:	d5033fdf 	isb
    80000c2c:	39400660 	ldrb	w0, [x19, #1]
    80000c30:	7100081f 	cmp	w0, #0x2
    80000c34:	540003a0 	b.eq	80000ca8 <imx_domain_suspend+0xc0>  // b.none
    80000c38:	39400a77 	ldrb	w23, [x19, #2]
    80000c3c:	710006ff 	cmp	w23, #0x1
    80000c40:	54000480 	b.eq	80000cd0 <imx_domain_suspend+0xe8>  // b.none
    80000c44:	a94153f3 	ldp	x19, x20, [sp, #16]
    80000c48:	a9425bf5 	ldp	x21, x22, [sp, #32]
    80000c4c:	f9401bf7 	ldr	x23, [sp, #48]
    80000c50:	a8c47bfd 	ldp	x29, x30, [sp], #64
    80000c54:	d65f03c0 	ret
    80000c58:	940008b4 	bl	80002f28 <plat_gic_cpuif_disable>
    80000c5c:	d0000077 	adrp	x23, 8000e000 <psci_ns_context+0xb20>
    80000c60:	0b150a84 	add	w4, w20, w21, lsl #2
    80000c64:	f0000021 	adrp	x1, 80007000 <vprintf+0x238>
    80000c68:	91176021 	add	x1, x1, #0x5d8
    80000c6c:	d2b00003 	mov	x3, #0x80000000            	// #2147483648
    80000c70:	f94102e0 	ldr	x0, [x23, #512]
    80000c74:	52800022 	mov	w2, #0x1                   	// #1
    80000c78:	b8647836 	ldr	w22, [x1, x4, lsl #2]
    80000c7c:	12003ed6 	and	w22, w22, #0xffff
    80000c80:	2a1603e1 	mov	w1, w22
    80000c84:	940009d5 	bl	800033d8 <sc_pm_set_cpu_resume>
    80000c88:	f94102e0 	ldr	x0, [x23, #512]
    80000c8c:	2a1603e1 	mov	w1, w22
    80000c90:	52800083 	mov	w3, #0x4                   	// #4
    80000c94:	52800002 	mov	w2, #0x0                   	// #0
    80000c98:	940009c2 	bl	800033a0 <sc_pm_req_cpu_low_power_mode>
    80000c9c:	39400660 	ldrb	w0, [x19, #1]
    80000ca0:	7100081f 	cmp	w0, #0x2
    80000ca4:	54fffca1 	b.ne	80000c38 <imx_domain_suspend+0x50>  // b.any
    80000ca8:	2a1503e0 	mov	w0, w21
    80000cac:	94000489 	bl	80001ed0 <cci_disable_snoop_dvm_reqs>
    80000cb0:	710006bf 	cmp	w21, #0x1
    80000cb4:	54fffc21 	b.ne	80000c38 <imx_domain_suspend+0x50>  // b.any
    80000cb8:	d0000060 	adrp	x0, 8000e000 <psci_ns_context+0xb20>
    80000cbc:	52800002 	mov	w2, #0x0                   	// #0
    80000cc0:	528000a1 	mov	w1, #0x5                   	// #5
    80000cc4:	f9410000 	ldr	x0, [x0, #512]
    80000cc8:	940009a8 	bl	80003368 <sc_pm_req_low_power_mode>
    80000ccc:	17ffffdb 	b	80000c38 <imx_domain_suspend+0x50>
    80000cd0:	94000896 	bl	80002f28 <plat_gic_cpuif_disable>
    80000cd4:	d0000073 	adrp	x19, 8000e000 <psci_ns_context+0xb20>
    80000cd8:	d0000041 	adrp	x1, 8000a000 <__STACKS_START__+0xf80>
    80000cdc:	91250036 	add	x22, x1, #0x940
    80000ce0:	aa1603e1 	mov	x1, x22
    80000ce4:	2a1403e0 	mov	w0, w20
    80000ce8:	9400089c 	bl	80002f58 <plat_gic_save>
    80000cec:	f9410260 	ldr	x0, [x19, #512]
    80000cf0:	52800062 	mov	w2, #0x3                   	// #3
    80000cf4:	52802821 	mov	w1, #0x141                 	// #321
    80000cf8:	9400098e 	bl	80003330 <sc_pm_set_resource_power_mode>
    80000cfc:	d2843580 	mov	x0, #0x21ac                	// #8620
    80000d00:	d2aa2122 	mov	x2, #0x51090000            	// #1359544320
    80000d04:	d2843581 	mov	x1, #0x21ac                	// #8620
    80000d08:	8b0002c4 	add	x4, x22, x0
    80000d0c:	f2aa2121 	movk	x1, #0x5109, lsl #16
    80000d10:	90000060 	adrp	x0, 8000c000 <imx_gicv3_ctx+0x16c0>
    80000d14:	8b0102c1 	add	x1, x22, x1
    80000d18:	912ac000 	add	x0, x0, #0xab0
    80000d1c:	b9000057 	str	w23, [x2]
    80000d20:	cb000022 	sub	x2, x1, x0
    80000d24:	b9400003 	ldr	w3, [x0]
    80000d28:	91001000 	add	x0, x0, #0x4
    80000d2c:	eb04001f 	cmp	x0, x4
    80000d30:	b9000043 	str	w3, [x2]
    80000d34:	54ffff61 	b.ne	80000d20 <imx_domain_suspend+0x138>  // b.any
    80000d38:	9400023e 	bl	80001630 <imx_is_wakeup_src_irqsteer>
    80000d3c:	72001c1f 	tst	w0, #0xff
    80000d40:	f9410260 	ldr	x0, [x19, #512]
    80000d44:	54000cc1 	b.ne	80000edc <imx_domain_suspend+0x2f4>  // b.any
    80000d48:	52800002 	mov	w2, #0x0                   	// #0
    80000d4c:	52802821 	mov	w1, #0x141                 	// #321
    80000d50:	94000978 	bl	80003330 <sc_pm_set_resource_power_mode>
    80000d54:	2a1503e0 	mov	w0, w21
    80000d58:	9400045e 	bl	80001ed0 <cci_disable_snoop_dvm_reqs>
    80000d5c:	f9410260 	ldr	x0, [x19, #512]
    80000d60:	52800002 	mov	w2, #0x0                   	// #0
    80000d64:	52800241 	mov	w1, #0x12                  	// #18
    80000d68:	0b150a94 	add	w20, w20, w21, lsl #2
    80000d6c:	94000971 	bl	80003330 <sc_pm_set_resource_power_mode>
    80000d70:	d2abaa81 	mov	x1, #0x5d540000            	// #1565786112
    80000d74:	d0000040 	adrp	x0, 8000a000 <__STACKS_START__+0xf80>
    80000d78:	d2aba282 	mov	x2, #0x5d140000            	// #1561591808
    80000d7c:	d2800084 	mov	x4, #0x4                   	// #4
    80000d80:	b9400023 	ldr	w3, [x1]
    80000d84:	d0000041 	adrp	x1, 8000a000 <__STACKS_START__+0xf80>
    80000d88:	b9093003 	str	w3, [x0, #2352]
    80000d8c:	f2aba284 	movk	x4, #0x5d14, lsl #16
    80000d90:	f9410260 	ldr	x0, [x19, #512]
    80000d94:	9124e023 	add	x3, x1, #0x938
    80000d98:	b9400045 	ldr	w5, [x2]
    80000d9c:	52800002 	mov	w2, #0x0                   	// #0
    80000da0:	b9093825 	str	w5, [x1, #2360]
    80000da4:	528019e1 	mov	w1, #0xcf                  	// #207
    80000da8:	b9400084 	ldr	w4, [x4]
    80000dac:	b9000464 	str	w4, [x3, #4]
    80000db0:	94000960 	bl	80003330 <sc_pm_set_resource_power_mode>
    80000db4:	f9410260 	ldr	x0, [x19, #512]
    80000db8:	52800002 	mov	w2, #0x0                   	// #0
    80000dbc:	52800001 	mov	w1, #0x0                   	// #0
    80000dc0:	9400096a 	bl	80003368 <sc_pm_req_low_power_mode>
    80000dc4:	f9410260 	ldr	x0, [x19, #512]
    80000dc8:	52800002 	mov	w2, #0x0                   	// #0
    80000dcc:	528000a1 	mov	w1, #0x5                   	// #5
    80000dd0:	94000966 	bl	80003368 <sc_pm_req_low_power_mode>
    80000dd4:	f9410260 	ldr	x0, [x19, #512]
    80000dd8:	52800002 	mov	w2, #0x0                   	// #0
    80000ddc:	52800141 	mov	w1, #0xa                   	// #10
    80000de0:	94000962 	bl	80003368 <sc_pm_req_low_power_mode>
    80000de4:	f9410260 	ldr	x0, [x19, #512]
    80000de8:	52800063 	mov	w3, #0x3                   	// #3
    80000dec:	52800004 	mov	w4, #0x0                   	// #0
    80000df0:	2a0303e2 	mov	w2, w3
    80000df4:	52800001 	mov	w1, #0x0                   	// #0
    80000df8:	9400098a 	bl	80003420 <sc_pm_req_sys_if_power_mode>
    80000dfc:	f9410260 	ldr	x0, [x19, #512]
    80000e00:	52800063 	mov	w3, #0x3                   	// #3
    80000e04:	52800004 	mov	w4, #0x0                   	// #0
    80000e08:	2a0303e2 	mov	w2, w3
    80000e0c:	528000a1 	mov	w1, #0x5                   	// #5
    80000e10:	94000984 	bl	80003420 <sc_pm_req_sys_if_power_mode>
    80000e14:	f9410260 	ldr	x0, [x19, #512]
    80000e18:	52800004 	mov	w4, #0x0                   	// #0
    80000e1c:	52800063 	mov	w3, #0x3                   	// #3
    80000e20:	52800022 	mov	w2, #0x1                   	// #1
    80000e24:	52800001 	mov	w1, #0x0                   	// #0
    80000e28:	9400097e 	bl	80003420 <sc_pm_req_sys_if_power_mode>
    80000e2c:	f9410260 	ldr	x0, [x19, #512]
    80000e30:	52800004 	mov	w4, #0x0                   	// #0
    80000e34:	52800063 	mov	w3, #0x3                   	// #3
    80000e38:	52800022 	mov	w2, #0x1                   	// #1
    80000e3c:	528000a1 	mov	w1, #0x5                   	// #5
    80000e40:	94000978 	bl	80003420 <sc_pm_req_sys_if_power_mode>
    80000e44:	f9410260 	ldr	x0, [x19, #512]
    80000e48:	52800004 	mov	w4, #0x0                   	// #0
    80000e4c:	52800063 	mov	w3, #0x3                   	// #3
    80000e50:	52800002 	mov	w2, #0x0                   	// #0
    80000e54:	52800001 	mov	w1, #0x0                   	// #0
    80000e58:	94000972 	bl	80003420 <sc_pm_req_sys_if_power_mode>
    80000e5c:	f9410260 	ldr	x0, [x19, #512]
    80000e60:	52800004 	mov	w4, #0x0                   	// #0
    80000e64:	52800063 	mov	w3, #0x3                   	// #3
    80000e68:	52800002 	mov	w2, #0x0                   	// #0
    80000e6c:	528000a1 	mov	w1, #0x5                   	// #5
    80000e70:	9400096c 	bl	80003420 <sc_pm_req_sys_if_power_mode>
    80000e74:	f9410260 	ldr	x0, [x19, #512]
    80000e78:	52800002 	mov	w2, #0x0                   	// #0
    80000e7c:	52800141 	mov	w1, #0xa                   	// #10
    80000e80:	9400093a 	bl	80003368 <sc_pm_req_low_power_mode>
    80000e84:	f0000021 	adrp	x1, 80007000 <vprintf+0x238>
    80000e88:	91176021 	add	x1, x1, #0x5d8
    80000e8c:	f9410260 	ldr	x0, [x19, #512]
    80000e90:	d2b00003 	mov	x3, #0x80000000            	// #2147483648
    80000e94:	b8747834 	ldr	w20, [x1, x20, lsl #2]
    80000e98:	52800022 	mov	w2, #0x1                   	// #1
    80000e9c:	12003e94 	and	w20, w20, #0xffff
    80000ea0:	2a1403e1 	mov	w1, w20
    80000ea4:	9400094d 	bl	800033d8 <sc_pm_set_cpu_resume>
    80000ea8:	940001e2 	bl	80001630 <imx_is_wakeup_src_irqsteer>
    80000eac:	72001c1f 	tst	w0, #0xff
    80000eb0:	2a1403e1 	mov	w1, w20
    80000eb4:	52800043 	mov	w3, #0x2                   	// #2
    80000eb8:	f9410260 	ldr	x0, [x19, #512]
    80000ebc:	54000041 	b.ne	80000ec4 <imx_domain_suspend+0x2dc>  // b.any
    80000ec0:	52800023 	mov	w3, #0x1                   	// #1
    80000ec4:	a94153f3 	ldp	x19, x20, [sp, #16]
    80000ec8:	52800002 	mov	w2, #0x0                   	// #0
    80000ecc:	a9425bf5 	ldp	x21, x22, [sp, #32]
    80000ed0:	f9401bf7 	ldr	x23, [sp, #48]
    80000ed4:	a8c47bfd 	ldp	x29, x30, [sp], #64
    80000ed8:	14000932 	b	800033a0 <sc_pm_req_cpu_low_power_mode>
    80000edc:	52800022 	mov	w2, #0x1                   	// #1
    80000ee0:	52802821 	mov	w1, #0x141                 	// #321
    80000ee4:	94000913 	bl	80003330 <sc_pm_set_resource_power_mode>
    80000ee8:	17ffff9b 	b	80000d54 <imx_domain_suspend+0x16c>
    80000eec:	00000000 	.inst	0x00000000 ; undefined

0000000080000ef0 <imx_domain_suspend_finish>:
    80000ef0:	a9bc7bfd 	stp	x29, x30, [sp, #-64]!
    80000ef4:	910003fd 	mov	x29, sp
    80000ef8:	a90153f3 	stp	x19, x20, [sp, #16]
    80000efc:	aa0003f3 	mov	x19, x0
    80000f00:	a9025bf5 	stp	x21, x22, [sp, #32]
    80000f04:	f9001bf7 	str	x23, [sp, #48]
    80000f08:	d53800a0 	mrs	x0, mpidr_el1
    80000f0c:	39400a74 	ldrb	w20, [x19, #2]
    80000f10:	53083c17 	ubfx	w23, w0, #8, #8
    80000f14:	12001c15 	and	w21, w0, #0xff
    80000f18:	7100069f 	cmp	w20, #0x1
    80000f1c:	54000200 	b.eq	80000f5c <imx_domain_suspend_finish+0x6c>  // b.none
    80000f20:	39400660 	ldrb	w0, [x19, #1]
    80000f24:	7100081f 	cmp	w0, #0x2
    80000f28:	54001060 	b.eq	80001134 <imx_domain_suspend_finish+0x244>  // b.none
    80000f2c:	39400260 	ldrb	w0, [x19]
    80000f30:	7100081f 	cmp	w0, #0x2
    80000f34:	54001140 	b.eq	8000115c <imx_domain_suspend_finish+0x26c>  // b.none
    80000f38:	d53e1100 	mrs	x0, scr_el3
    80000f3c:	927df800 	and	x0, x0, #0xfffffffffffffffb
    80000f40:	d51e1100 	msr	scr_el3, x0
    80000f44:	d5033fdf 	isb
    80000f48:	a94153f3 	ldp	x19, x20, [sp, #16]
    80000f4c:	a9425bf5 	ldp	x21, x22, [sp, #32]
    80000f50:	f9401bf7 	ldr	x23, [sp, #48]
    80000f54:	a8c47bfd 	ldp	x29, x30, [sp], #64
    80000f58:	d65f03c0 	ret
    80000f5c:	52aba360 	mov	w0, #0x5d1b0000            	// #1562050560
    80000f60:	940008aa 	bl	80003208 <MU_Resume>
    80000f64:	0b170aa4 	add	w4, w21, w23, lsl #2
    80000f68:	f0000021 	adrp	x1, 80007000 <vprintf+0x238>
    80000f6c:	91176021 	add	x1, x1, #0x5d8
    80000f70:	d0000076 	adrp	x22, 8000e000 <psci_ns_context+0xb20>
    80000f74:	52800083 	mov	w3, #0x4                   	// #4
    80000f78:	52800062 	mov	w2, #0x3                   	// #3
    80000f7c:	f94102c0 	ldr	x0, [x22, #512]
    80000f80:	b8647821 	ldr	w1, [x1, x4, lsl #2]
    80000f84:	94000907 	bl	800033a0 <sc_pm_req_cpu_low_power_mode>
    80000f88:	f94102c0 	ldr	x0, [x22, #512]
    80000f8c:	52800062 	mov	w2, #0x3                   	// #3
    80000f90:	52800241 	mov	w1, #0x12                  	// #18
    80000f94:	940008e7 	bl	80003330 <sc_pm_set_resource_power_mode>
    80000f98:	f94102c0 	ldr	x0, [x22, #512]
    80000f9c:	52800062 	mov	w2, #0x3                   	// #3
    80000fa0:	528019e1 	mov	w1, #0xcf                  	// #207
    80000fa4:	940008e3 	bl	80003330 <sc_pm_set_resource_power_mode>
    80000fa8:	f94102c0 	ldr	x0, [x22, #512]
    80000fac:	52800004 	mov	w4, #0x0                   	// #0
    80000fb0:	2a1403e3 	mov	w3, w20
    80000fb4:	52800042 	mov	w2, #0x2                   	// #2
    80000fb8:	528019e1 	mov	w1, #0xcf                  	// #207
    80000fbc:	9400093d 	bl	800034b0 <sc_pm_clock_enable>
    80000fc0:	d0000040 	adrp	x0, 8000a000 <__STACKS_START__+0xf80>
    80000fc4:	d2aba283 	mov	x3, #0x5d140000            	// #1561591808
    80000fc8:	9124e002 	add	x2, x0, #0x938
    80000fcc:	d2800081 	mov	x1, #0x4                   	// #4
    80000fd0:	b9493800 	ldr	w0, [x0, #2360]
    80000fd4:	f2aba281 	movk	x1, #0x5d14, lsl #16
    80000fd8:	b9000060 	str	w0, [x3]
    80000fdc:	d0000043 	adrp	x3, 8000a000 <__STACKS_START__+0xf80>
    80000fe0:	d2abaa80 	mov	x0, #0x5d540000            	// #1565786112
    80000fe4:	b9400442 	ldr	w2, [x2, #4]
    80000fe8:	b9000022 	str	w2, [x1]
    80000fec:	52800001 	mov	w1, #0x0                   	// #0
    80000ff0:	52800062 	mov	w2, #0x3                   	// #3
    80000ff4:	b9493063 	ldr	w3, [x3, #2352]
    80000ff8:	b9000003 	str	w3, [x0]
    80000ffc:	f94102c0 	ldr	x0, [x22, #512]
    80001000:	940008da 	bl	80003368 <sc_pm_req_low_power_mode>
    80001004:	f94102c0 	ldr	x0, [x22, #512]
    80001008:	52800062 	mov	w2, #0x3                   	// #3
    8000100c:	528000a1 	mov	w1, #0x5                   	// #5
    80001010:	940008d6 	bl	80003368 <sc_pm_req_low_power_mode>
    80001014:	f94102c0 	ldr	x0, [x22, #512]
    80001018:	52800062 	mov	w2, #0x3                   	// #3
    8000101c:	52800141 	mov	w1, #0xa                   	// #10
    80001020:	940008d2 	bl	80003368 <sc_pm_req_low_power_mode>
    80001024:	f94102c0 	ldr	x0, [x22, #512]
    80001028:	52800064 	mov	w4, #0x3                   	// #3
    8000102c:	52800001 	mov	w1, #0x0                   	// #0
    80001030:	2a0403e3 	mov	w3, w4
    80001034:	2a0403e2 	mov	w2, w4
    80001038:	940008fa 	bl	80003420 <sc_pm_req_sys_if_power_mode>
    8000103c:	f94102c0 	ldr	x0, [x22, #512]
    80001040:	52800064 	mov	w4, #0x3                   	// #3
    80001044:	528000a1 	mov	w1, #0x5                   	// #5
    80001048:	2a0403e3 	mov	w3, w4
    8000104c:	2a0403e2 	mov	w2, w4
    80001050:	940008f4 	bl	80003420 <sc_pm_req_sys_if_power_mode>
    80001054:	f94102c0 	ldr	x0, [x22, #512]
    80001058:	52800064 	mov	w4, #0x3                   	// #3
    8000105c:	2a1403e2 	mov	w2, w20
    80001060:	2a0403e3 	mov	w3, w4
    80001064:	52800001 	mov	w1, #0x0                   	// #0
    80001068:	940008ee 	bl	80003420 <sc_pm_req_sys_if_power_mode>
    8000106c:	f94102c0 	ldr	x0, [x22, #512]
    80001070:	52800064 	mov	w4, #0x3                   	// #3
    80001074:	2a1403e2 	mov	w2, w20
    80001078:	2a0403e3 	mov	w3, w4
    8000107c:	528000a1 	mov	w1, #0x5                   	// #5
    80001080:	940008e8 	bl	80003420 <sc_pm_req_sys_if_power_mode>
    80001084:	f94102c0 	ldr	x0, [x22, #512]
    80001088:	52800064 	mov	w4, #0x3                   	// #3
    8000108c:	52800002 	mov	w2, #0x0                   	// #0
    80001090:	2a0403e3 	mov	w3, w4
    80001094:	52800001 	mov	w1, #0x0                   	// #0
    80001098:	940008e2 	bl	80003420 <sc_pm_req_sys_if_power_mode>
    8000109c:	f94102c0 	ldr	x0, [x22, #512]
    800010a0:	52800064 	mov	w4, #0x3                   	// #3
    800010a4:	52800002 	mov	w2, #0x0                   	// #0
    800010a8:	2a0403e3 	mov	w3, w4
    800010ac:	528000a1 	mov	w1, #0x5                   	// #5
    800010b0:	940008dc 	bl	80003420 <sc_pm_req_sys_if_power_mode>
    800010b4:	f94102c0 	ldr	x0, [x22, #512]
    800010b8:	52800062 	mov	w2, #0x3                   	// #3
    800010bc:	52800141 	mov	w1, #0xa                   	// #10
    800010c0:	940008aa 	bl	80003368 <sc_pm_req_low_power_mode>
    800010c4:	2a1703e0 	mov	w0, w23
    800010c8:	94000372 	bl	80001e90 <cci_enable_snoop_dvm_reqs>
    800010cc:	2a1503e0 	mov	w0, w21
    800010d0:	b0000041 	adrp	x1, 8000a000 <__STACKS_START__+0xf80>
    800010d4:	91250021 	add	x1, x1, #0x940
    800010d8:	940007b4 	bl	80002fa8 <plat_gic_restore>
    800010dc:	f94102c0 	ldr	x0, [x22, #512]
    800010e0:	52800062 	mov	w2, #0x3                   	// #3
    800010e4:	52802821 	mov	w1, #0x141                 	// #321
    800010e8:	94000892 	bl	80003330 <sc_pm_set_resource_power_mode>
    800010ec:	d2aa2122 	mov	x2, #0x51090000            	// #1359544320
    800010f0:	d2800080 	mov	x0, #0x4                   	// #4
    800010f4:	d2800881 	mov	x1, #0x44                  	// #68
    800010f8:	f2aa2120 	movk	x0, #0x5109, lsl #16
    800010fc:	f2aa2121 	movk	x1, #0x5109, lsl #16
    80001100:	b900005f 	str	wzr, [x2]
    80001104:	d503201f 	nop
    80001108:	b800441f 	str	wzr, [x0], #4
    8000110c:	eb01001f 	cmp	x0, x1
    80001110:	54ffffc1 	b.ne	80001108 <imx_domain_suspend_finish+0x218>  // b.any
    80001114:	f94102c0 	ldr	x0, [x22, #512]
    80001118:	52800002 	mov	w2, #0x0                   	// #0
    8000111c:	52802821 	mov	w1, #0x141                 	// #321
    80001120:	94000884 	bl	80003330 <sc_pm_set_resource_power_mode>
    80001124:	9400077b 	bl	80002f10 <plat_gic_cpuif_enable>
    80001128:	39400660 	ldrb	w0, [x19, #1]
    8000112c:	7100081f 	cmp	w0, #0x2
    80001130:	54ffefe1 	b.ne	80000f2c <imx_domain_suspend_finish+0x3c>  // b.any
    80001134:	2a1703e0 	mov	w0, w23
    80001138:	94000356 	bl	80001e90 <cci_enable_snoop_dvm_reqs>
    8000113c:	710006ff 	cmp	w23, #0x1
    80001140:	54ffef61 	b.ne	80000f2c <imx_domain_suspend_finish+0x3c>  // b.any
    80001144:	b0000060 	adrp	x0, 8000e000 <psci_ns_context+0xb20>
    80001148:	52800062 	mov	w2, #0x3                   	// #3
    8000114c:	528000a1 	mov	w1, #0x5                   	// #5
    80001150:	f9410000 	ldr	x0, [x0, #512]
    80001154:	94000885 	bl	80003368 <sc_pm_req_low_power_mode>
    80001158:	17ffff75 	b	80000f2c <imx_domain_suspend_finish+0x3c>
    8000115c:	0b170aa1 	add	w1, w21, w23, lsl #2
    80001160:	b0000074 	adrp	x20, 8000e000 <psci_ns_context+0xb20>
    80001164:	d0000024 	adrp	x4, 80007000 <vprintf+0x238>
    80001168:	91176084 	add	x4, x4, #0x5d8
    8000116c:	f9410280 	ldr	x0, [x20, #512]
    80001170:	d2b00003 	mov	x3, #0x80000000            	// #2147483648
    80001174:	b8617893 	ldr	w19, [x4, x1, lsl #2]
    80001178:	52800002 	mov	w2, #0x0                   	// #0
    8000117c:	12003e73 	and	w19, w19, #0xffff
    80001180:	2a1303e1 	mov	w1, w19
    80001184:	94000895 	bl	800033d8 <sc_pm_set_cpu_resume>
    80001188:	f9410280 	ldr	x0, [x20, #512]
    8000118c:	2a1303e1 	mov	w1, w19
    80001190:	52800083 	mov	w3, #0x4                   	// #4
    80001194:	52800062 	mov	w2, #0x3                   	// #3
    80001198:	94000882 	bl	800033a0 <sc_pm_req_cpu_low_power_mode>
    8000119c:	a94153f3 	ldp	x19, x20, [sp, #16]
    800011a0:	a9425bf5 	ldp	x21, x22, [sp, #32]
    800011a4:	f9401bf7 	ldr	x23, [sp, #48]
    800011a8:	a8c47bfd 	ldp	x29, x30, [sp], #64
    800011ac:	14000759 	b	80002f10 <plat_gic_cpuif_enable>

00000000800011b0 <plat_setup_psci_ops>:
    800011b0:	a9be7bfd 	stp	x29, x30, [sp, #-32]!
    800011b4:	910003fd 	mov	x29, sp
    800011b8:	a90153f3 	stp	x19, x20, [sp, #16]
    800011bc:	b0000073 	adrp	x19, 8000e000 <psci_ns_context+0xb20>
    800011c0:	aa0103f4 	mov	x20, x1
    800011c4:	940013e2 	bl	8000614c <imx_mailbox_init>
    800011c8:	f9410260 	ldr	x0, [x19, #512]
    800011cc:	d0000021 	adrp	x1, 80007000 <vprintf+0x238>
    800011d0:	9117c021 	add	x1, x1, #0x5f0
    800011d4:	f9000281 	str	x1, [x20]
    800011d8:	52800062 	mov	w2, #0x3                   	// #3
    800011dc:	52800001 	mov	w1, #0x0                   	// #0
    800011e0:	94000862 	bl	80003368 <sc_pm_req_low_power_mode>
    800011e4:	f9410260 	ldr	x0, [x19, #512]
    800011e8:	52800062 	mov	w2, #0x3                   	// #3
    800011ec:	528000a1 	mov	w1, #0x5                   	// #5
    800011f0:	9400085e 	bl	80003368 <sc_pm_req_low_power_mode>
    800011f4:	f9410260 	ldr	x0, [x19, #512]
    800011f8:	52800062 	mov	w2, #0x3                   	// #3
    800011fc:	52800141 	mov	w1, #0xa                   	// #10
    80001200:	9400085a 	bl	80003368 <sc_pm_req_low_power_mode>
    80001204:	f9410260 	ldr	x0, [x19, #512]
    80001208:	52800064 	mov	w4, #0x3                   	// #3
    8000120c:	52800001 	mov	w1, #0x0                   	// #0
    80001210:	2a0403e3 	mov	w3, w4
    80001214:	2a0403e2 	mov	w2, w4
    80001218:	94000882 	bl	80003420 <sc_pm_req_sys_if_power_mode>
    8000121c:	f9410260 	ldr	x0, [x19, #512]
    80001220:	52800064 	mov	w4, #0x3                   	// #3
    80001224:	528000a1 	mov	w1, #0x5                   	// #5
    80001228:	2a0403e3 	mov	w3, w4
    8000122c:	2a0403e2 	mov	w2, w4
    80001230:	9400087c 	bl	80003420 <sc_pm_req_sys_if_power_mode>
    80001234:	f9410260 	ldr	x0, [x19, #512]
    80001238:	52800064 	mov	w4, #0x3                   	// #3
    8000123c:	52800022 	mov	w2, #0x1                   	// #1
    80001240:	2a0403e3 	mov	w3, w4
    80001244:	52800001 	mov	w1, #0x0                   	// #0
    80001248:	94000876 	bl	80003420 <sc_pm_req_sys_if_power_mode>
    8000124c:	f9410260 	ldr	x0, [x19, #512]
    80001250:	52800064 	mov	w4, #0x3                   	// #3
    80001254:	52800022 	mov	w2, #0x1                   	// #1
    80001258:	2a0403e3 	mov	w3, w4
    8000125c:	528000a1 	mov	w1, #0x5                   	// #5
    80001260:	94000870 	bl	80003420 <sc_pm_req_sys_if_power_mode>
    80001264:	f9410260 	ldr	x0, [x19, #512]
    80001268:	52800064 	mov	w4, #0x3                   	// #3
    8000126c:	52800002 	mov	w2, #0x0                   	// #0
    80001270:	2a0403e3 	mov	w3, w4
    80001274:	52800001 	mov	w1, #0x0                   	// #0
    80001278:	9400086a 	bl	80003420 <sc_pm_req_sys_if_power_mode>
    8000127c:	f9410260 	ldr	x0, [x19, #512]
    80001280:	52800064 	mov	w4, #0x3                   	// #3
    80001284:	52800002 	mov	w2, #0x0                   	// #0
    80001288:	2a0403e3 	mov	w3, w4
    8000128c:	528000a1 	mov	w1, #0x5                   	// #5
    80001290:	94000864 	bl	80003420 <sc_pm_req_sys_if_power_mode>
    80001294:	52800000 	mov	w0, #0x0                   	// #0
    80001298:	a94153f3 	ldp	x19, x20, [sp, #16]
    8000129c:	a8c27bfd 	ldp	x29, x30, [sp], #32
    800012a0:	d65f03c0 	ret
    800012a4:	00000000 	.inst	0x00000000 ; undefined

00000000800012a8 <plat_get_power_domain_tree_desc>:
    800012a8:	d0000020 	adrp	x0, 80007000 <vprintf+0x238>
    800012ac:	911a4000 	add	x0, x0, #0x690
    800012b0:	d65f03c0 	ret
    800012b4:	00000000 	.inst	0x00000000 ; undefined

00000000800012b8 <plat_core_pos_by_mpidr>:
    800012b8:	92409c01 	and	x1, x0, #0xffffffffff
    800012bc:	92705c00 	and	x0, x0, #0xffffff0000
    800012c0:	9260dc21 	and	x1, x1, #0xffffffff00ffffff
    800012c4:	9260dc00 	and	x0, x0, #0xffffffff00ffffff
    800012c8:	b5000100 	cbnz	x0, 800012e8 <plat_core_pos_by_mpidr+0x30>
    800012cc:	53083c20 	ubfx	w0, w1, #8, #8
    800012d0:	12001c21 	and	w1, w1, #0xff
    800012d4:	7100081f 	cmp	w0, #0x2
    800012d8:	7a449822 	ccmp	w1, #0x4, #0x2, ls  // ls = plast
    800012dc:	54000068 	b.hi	800012e8 <plat_core_pos_by_mpidr+0x30>  // b.pmore
    800012e0:	0b000820 	add	w0, w1, w0, lsl #2
    800012e4:	d65f03c0 	ret
    800012e8:	12800000 	mov	w0, #0xffffffff            	// #-1
    800012ec:	d65f03c0 	ret

00000000800012f0 <imx_system_off>:
    800012f0:	a9bf7bfd 	stp	x29, x30, [sp, #-16]!
    800012f4:	b0000060 	adrp	x0, 8000e000 <psci_ns_context+0xb20>
    800012f8:	52800001 	mov	w1, #0x0                   	// #0
    800012fc:	910003fd 	mov	x29, sp
    80001300:	f9410000 	ldr	x0, [x0, #512]
    80001304:	940007ff 	bl	80003300 <sc_pm_set_sys_power_mode>
    80001308:	d503207f 	wfi
    8000130c:	d0000020 	adrp	x0, 80007000 <vprintf+0x238>
    80001310:	911a6000 	add	x0, x0, #0x698
    80001314:	94001323 	bl	80005fa0 <tf_log>
    80001318:	94001432 	bl	800063e0 <console_flush>
    8000131c:	94001597 	bl	80006978 <do_panic>

0000000080001320 <imx_system_reset>:
    80001320:	a9bf7bfd 	stp	x29, x30, [sp, #-16]!
    80001324:	b0000060 	adrp	x0, 8000e000 <psci_ns_context+0xb20>
    80001328:	52800001 	mov	w1, #0x0                   	// #0
    8000132c:	910003fd 	mov	x29, sp
    80001330:	f9410000 	ldr	x0, [x0, #512]
    80001334:	9400087f 	bl	80003530 <sc_pm_reboot>
    80001338:	d503207f 	wfi
    8000133c:	d0000020 	adrp	x0, 80007000 <vprintf+0x238>
    80001340:	911ac000 	add	x0, x0, #0x6b0
    80001344:	94001317 	bl	80005fa0 <tf_log>
    80001348:	94001426 	bl	800063e0 <console_flush>
    8000134c:	9400158b 	bl	80006978 <do_panic>

0000000080001350 <imx_system_reset2>:
    80001350:	a9bf7bfd 	stp	x29, x30, [sp, #-16]!
    80001354:	52800040 	mov	w0, #0x2                   	// #2
    80001358:	72b00000 	movk	w0, #0x8000, lsl #16
    8000135c:	910003fd 	mov	x29, sp
    80001360:	6b00003f 	cmp	w1, w0
    80001364:	54000100 	b.eq	80001384 <imx_system_reset2+0x34>  // b.none
    80001368:	34000341 	cbz	w1, 800013d0 <imx_system_reset2+0x80>
    8000136c:	320107e0 	mov	w0, #0x80000001            	// #-2147483647
    80001370:	6b00003f 	cmp	w1, w0
    80001374:	54000200 	b.eq	800013b4 <imx_system_reset2+0x64>  // b.none
    80001378:	12800020 	mov	w0, #0xfffffffe            	// #-2
    8000137c:	a8c17bfd 	ldp	x29, x30, [sp], #16
    80001380:	d65f03c0 	ret
    80001384:	b0000060 	adrp	x0, 8000e000 <psci_ns_context+0xb20>
    80001388:	52800041 	mov	w1, #0x2                   	// #2
    8000138c:	f9410000 	ldr	x0, [x0, #512]
    80001390:	9400085c 	bl	80003500 <sc_pm_reset>
    80001394:	d0000021 	adrp	x1, 80007000 <vprintf+0x238>
    80001398:	911b6021 	add	x1, x1, #0x6d8
    8000139c:	d503207f 	wfi
    800013a0:	d0000020 	adrp	x0, 80007000 <vprintf+0x238>
    800013a4:	911b8000 	add	x0, x0, #0x6e0
    800013a8:	940012fe 	bl	80005fa0 <tf_log>
    800013ac:	9400140d 	bl	800063e0 <console_flush>
    800013b0:	94001572 	bl	80006978 <do_panic>
    800013b4:	b0000060 	adrp	x0, 8000e000 <psci_ns_context+0xb20>
    800013b8:	52800001 	mov	w1, #0x0                   	// #0
    800013bc:	f9410000 	ldr	x0, [x0, #512]
    800013c0:	9400085c 	bl	80003530 <sc_pm_reboot>
    800013c4:	d0000021 	adrp	x1, 80007000 <vprintf+0x238>
    800013c8:	911b4021 	add	x1, x1, #0x6d0
    800013cc:	17fffff4 	b	8000139c <imx_system_reset2+0x4c>
    800013d0:	b0000060 	adrp	x0, 8000e000 <psci_ns_context+0xb20>
    800013d4:	52800021 	mov	w1, #0x1                   	// #1
    800013d8:	f9410000 	ldr	x0, [x0, #512]
    800013dc:	94000855 	bl	80003530 <sc_pm_reboot>
    800013e0:	d0000021 	adrp	x1, 80007000 <vprintf+0x238>
    800013e4:	911b2021 	add	x1, x1, #0x6c8
    800013e8:	17ffffed 	b	8000139c <imx_system_reset2+0x4c>
    800013ec:	00000000 	.inst	0x00000000 ; undefined

00000000800013f0 <imx_validate_power_state>:
    800013f0:	2a0003e2 	mov	w2, w0
    800013f4:	d3586440 	ubfx	x0, x2, #24, #2
    800013f8:	d3504043 	ubfx	x3, x2, #16, #1
    800013fc:	71000c1f 	cmp	w0, #0x3
    80001400:	54000160 	b.eq	8000142c <imx_validate_power_state+0x3c>  // b.none
    80001404:	52800000 	mov	w0, #0x0                   	// #0
    80001408:	34000103 	cbz	w3, 80001428 <imx_validate_power_state+0x38>
    8000140c:	13003c42 	sxth	w2, w2
    80001410:	52800043 	mov	w3, #0x2                   	// #2
    80001414:	7100005f 	cmp	w2, #0x0
    80001418:	52800022 	mov	w2, #0x1                   	// #1
    8000141c:	1a830042 	csel	w2, w2, w3, eq  // eq = none
    80001420:	39000023 	strb	w3, [x1]
    80001424:	39000422 	strb	w2, [x1, #1]
    80001428:	d65f03c0 	ret
    8000142c:	12800020 	mov	w0, #0xfffffffe            	// #-2
    80001430:	d65f03c0 	ret
    80001434:	00000000 	.inst	0x00000000 ; undefined

0000000080001438 <imx_get_sys_suspend_power_state>:
    80001438:	52800021 	mov	w1, #0x1                   	// #1
    8000143c:	39000001 	strb	w1, [x0]
    80001440:	39000401 	strb	w1, [x0, #1]
    80001444:	39000801 	strb	w1, [x0, #2]
    80001448:	d65f03c0 	ret
    8000144c:	00000000 	.inst	0x00000000 ; undefined

0000000080001450 <imx_pwr_domain_pwr_down_wfi>:
    80001450:	d503207f 	wfi
    80001454:	17ffffff 	b	80001450 <imx_pwr_domain_pwr_down_wfi>

0000000080001458 <imx_cpufreq_handler>:
    80001458:	b5000221 	cbnz	x1, 8000149c <imx_cpufreq_handler+0x44>
    8000145c:	aa0203e5 	mov	x5, x2
    80001460:	d0000021 	adrp	x1, 80007000 <vprintf+0x238>
    80001464:	911c0021 	add	x1, x1, #0x700
    80001468:	a9be7bfd 	stp	x29, x30, [sp, #-32]!
    8000146c:	b0000060 	adrp	x0, 8000e000 <psci_ns_context+0xb20>
    80001470:	910003fd 	mov	x29, sp
    80001474:	b8655821 	ldr	w1, [x1, w5, uxtw #2]
    80001478:	aa0303e4 	mov	x4, x3
    8000147c:	f9410000 	ldr	x0, [x0, #512]
    80001480:	910073e3 	add	x3, sp, #0x1c
    80001484:	52800042 	mov	w2, #0x2                   	// #2
    80001488:	b9001fe4 	str	w4, [sp, #28]
    8000148c:	940007f5 	bl	80003460 <sc_pm_set_clock_rate>
    80001490:	52800000 	mov	w0, #0x0                   	// #0
    80001494:	a8c27bfd 	ldp	x29, x30, [sp], #32
    80001498:	d65f03c0 	ret
    8000149c:	12800000 	mov	w0, #0xffffffff            	// #-1
    800014a0:	d65f03c0 	ret
    800014a4:	00000000 	.inst	0x00000000 ; undefined

00000000800014a8 <imx_srtc_handler>:
    800014a8:	a9bc7bfd 	stp	x29, x30, [sp, #-64]!
    800014ac:	f100105f 	cmp	x2, #0x4
    800014b0:	910003fd 	mov	x29, sp
    800014b4:	a90153f3 	stp	x19, x20, [sp, #16]
    800014b8:	aa0103f3 	mov	x19, x1
    800014bc:	54000a00 	b.eq	800015fc <imx_srtc_handler+0x154>  // b.none
    800014c0:	aa0303f4 	mov	x20, x3
    800014c4:	54000268 	b.hi	80001510 <imx_srtc_handler+0x68>  // b.pmore
    800014c8:	f100085f 	cmp	x2, #0x2
    800014cc:	54000a20 	b.eq	80001610 <imx_srtc_handler+0x168>  // b.none
    800014d0:	f1000c5f 	cmp	x2, #0x3
    800014d4:	54000421 	b.ne	80001558 <imx_srtc_handler+0xb0>  // b.any
    800014d8:	f90013f5 	str	x21, [sp, #32]
    800014dc:	b0000075 	adrp	x21, 8000e000 <psci_ns_context+0xb20>
    800014e0:	9100f3e1 	add	x1, sp, #0x3c
    800014e4:	f94102a0 	ldr	x0, [x21, #512]
    800014e8:	94000850 	bl	80003628 <sc_rm_get_partition>
    800014ec:	72001c00 	ands	w0, w0, #0xff
    800014f0:	54000480 	b.eq	80001580 <imx_srtc_handler+0xd8>  // b.none
    800014f4:	f94013f5 	ldr	x21, [sp, #32]
    800014f8:	93407c00 	sxtw	x0, w0
    800014fc:	f9000260 	str	x0, [x19]
    80001500:	2a1303e0 	mov	w0, w19
    80001504:	a94153f3 	ldp	x19, x20, [sp, #16]
    80001508:	a8c47bfd 	ldp	x29, x30, [sp], #64
    8000150c:	d65f03c0 	ret
    80001510:	f100185f 	cmp	x2, #0x6
    80001514:	54000420 	b.eq	80001598 <imx_srtc_handler+0xf0>  // b.none
    80001518:	f1001c5f 	cmp	x2, #0x7
    8000151c:	540000e1 	b.ne	80001538 <imx_srtc_handler+0x90>  // b.any
    80001520:	b0000060 	adrp	x0, 8000e000 <psci_ns_context+0xb20>
    80001524:	2a0303e1 	mov	w1, w3
    80001528:	f9410000 	ldr	x0, [x0, #512]
    8000152c:	94000903 	bl	80003938 <sc_timer_set_wdog_pre_timeout>
    80001530:	92401c00 	and	x0, x0, #0xff
    80001534:	17fffff2 	b	800014fc <imx_srtc_handler+0x54>
    80001538:	f100145f 	cmp	x2, #0x5
    8000153c:	54000741 	b.ne	80001624 <imx_srtc_handler+0x17c>  // b.any
    80001540:	b0000060 	adrp	x0, 8000e000 <psci_ns_context+0xb20>
    80001544:	2a0303e1 	mov	w1, w3
    80001548:	f9410000 	ldr	x0, [x0, #512]
    8000154c:	940008ef 	bl	80003908 <sc_timer_set_wdog_timeout>
    80001550:	92401c00 	and	x0, x0, #0xff
    80001554:	17ffffea 	b	800014fc <imx_srtc_handler+0x54>
    80001558:	b40003e2 	cbz	x2, 800015d4 <imx_srtc_handler+0x12c>
    8000155c:	f100045f 	cmp	x2, #0x1
    80001560:	54000621 	b.ne	80001624 <imx_srtc_handler+0x17c>  // b.any
    80001564:	b0000060 	adrp	x0, 8000e000 <psci_ns_context+0xb20>
    80001568:	f100007f 	cmp	x3, #0x0
    8000156c:	1a9f07e1 	cset	w1, ne  // ne = any
    80001570:	f9410000 	ldr	x0, [x0, #512]
    80001574:	940008fd 	bl	80003968 <sc_timer_start_wdog>
    80001578:	92401c00 	and	x0, x0, #0xff
    8000157c:	17ffffe0 	b	800014fc <imx_srtc_handler+0x54>
    80001580:	f94102a0 	ldr	x0, [x21, #512]
    80001584:	2a1403e2 	mov	w2, w20
    80001588:	3940f3e1 	ldrb	w1, [sp, #60]
    8000158c:	94000939 	bl	80003a70 <sc_timer_set_wdog_action>
    80001590:	12001c00 	and	w0, w0, #0xff
    80001594:	17ffffd8 	b	800014f4 <imx_srtc_handler+0x4c>
    80001598:	b0000060 	adrp	x0, 8000e000 <psci_ns_context+0xb20>
    8000159c:	9100f3e3 	add	x3, sp, #0x3c
    800015a0:	9100e3e2 	add	x2, sp, #0x38
    800015a4:	9100d3e1 	add	x1, sp, #0x34
    800015a8:	f9410000 	ldr	x0, [x0, #512]
    800015ac:	94000915 	bl	80003a00 <sc_timer_get_wdog_status>
    800015b0:	92401c00 	and	x0, x0, #0xff
    800015b4:	29468be3 	ldp	w3, w2, [sp, #52]
    800015b8:	a9000e60 	stp	x0, x3, [x19]
    800015bc:	b9403fe1 	ldr	w1, [sp, #60]
    800015c0:	a9010662 	stp	x2, x1, [x19, #16]
    800015c4:	2a1303e0 	mov	w0, w19
    800015c8:	a94153f3 	ldp	x19, x20, [sp, #16]
    800015cc:	a8c47bfd 	ldp	x29, x30, [sp], #64
    800015d0:	d65f03c0 	ret
    800015d4:	b0000060 	adrp	x0, 8000e000 <psci_ns_context+0xb20>
    800015d8:	2a0503e6 	mov	w6, w5
    800015dc:	d3505c83 	ubfx	x3, x4, #16, #8
    800015e0:	d3505ca5 	ubfx	x5, x5, #16, #8
    800015e4:	f9410000 	ldr	x0, [x0, #512]
    800015e8:	2a1403e2 	mov	w2, w20
    800015ec:	53107e81 	lsr	w1, w20, #16
    800015f0:	9400092e 	bl	80003aa8 <sc_timer_set_rtc_time>
    800015f4:	92401c00 	and	x0, x0, #0xff
    800015f8:	17ffffc1 	b	800014fc <imx_srtc_handler+0x54>
    800015fc:	b0000060 	adrp	x0, 8000e000 <psci_ns_context+0xb20>
    80001600:	f9410000 	ldr	x0, [x0, #512]
    80001604:	940008f3 	bl	800039d0 <sc_timer_ping_wdog>
    80001608:	92401c00 	and	x0, x0, #0xff
    8000160c:	17ffffbc 	b	800014fc <imx_srtc_handler+0x54>
    80001610:	b0000060 	adrp	x0, 8000e000 <psci_ns_context+0xb20>
    80001614:	f9410000 	ldr	x0, [x0, #512]
    80001618:	940008e2 	bl	800039a0 <sc_timer_stop_wdog>
    8000161c:	92401c00 	and	x0, x0, #0xff
    80001620:	17ffffb7 	b	800014fc <imx_srtc_handler+0x54>
    80001624:	92800000 	mov	x0, #0xffffffffffffffff    	// #-1
    80001628:	17ffffb5 	b	800014fc <imx_srtc_handler+0x54>
    8000162c:	00000000 	.inst	0x00000000 ; undefined

0000000080001630 <imx_is_wakeup_src_irqsteer>:
    80001630:	90000060 	adrp	x0, 8000d000 <imx_gicv3_ctx+0x26c0>
    80001634:	3949c000 	ldrb	w0, [x0, #624]
    80001638:	d65f03c0 	ret
    8000163c:	00000000 	.inst	0x00000000 ; undefined

0000000080001640 <imx_wakeup_src_handler>:
    80001640:	f100043f 	cmp	x1, #0x1
    80001644:	54000120 	b.eq	80001668 <imx_wakeup_src_handler+0x28>  // b.none
    80001648:	f100083f 	cmp	x1, #0x2
    8000164c:	12800000 	mov	w0, #0xffffffff            	// #-1
    80001650:	540000a1 	b.ne	80001664 <imx_wakeup_src_handler+0x24>  // b.any
    80001654:	90000061 	adrp	x1, 8000d000 <imx_gicv3_ctx+0x26c0>
    80001658:	52800022 	mov	w2, #0x1                   	// #1
    8000165c:	52800000 	mov	w0, #0x0                   	// #0
    80001660:	3909c022 	strb	w2, [x1, #624]
    80001664:	d65f03c0 	ret
    80001668:	90000061 	adrp	x1, 8000d000 <imx_gicv3_ctx+0x26c0>
    8000166c:	52800000 	mov	w0, #0x0                   	// #0
    80001670:	3909c03f 	strb	wzr, [x1, #624]
    80001674:	d65f03c0 	ret

0000000080001678 <imx_otp_handler>:
    80001678:	a9bd7bfd 	stp	x29, x30, [sp, #-48]!
    8000167c:	910003fd 	mov	x29, sp
    80001680:	f9000bf3 	str	x19, [sp, #16]
    80001684:	aa0103f3 	mov	x19, x1
    80001688:	aa0203e1 	mov	x1, x2
    8000168c:	52800142 	mov	w2, #0xa                   	// #10
    80001690:	72b84002 	movk	w2, #0xc200, lsl #16
    80001694:	6b02001f 	cmp	w0, w2
    80001698:	54000140 	b.eq	800016c0 <imx_otp_handler+0x48>  // b.none
    8000169c:	11000442 	add	w2, w2, #0x1
    800016a0:	6b02001f 	cmp	w0, w2
    800016a4:	54000240 	b.eq	800016ec <imx_otp_handler+0x74>  // b.none
    800016a8:	92800000 	mov	x0, #0xffffffffffffffff    	// #-1
    800016ac:	f9000260 	str	x0, [x19]
    800016b0:	2a1303e0 	mov	w0, w19
    800016b4:	f9400bf3 	ldr	x19, [sp, #16]
    800016b8:	a8c37bfd 	ldp	x29, x30, [sp], #48
    800016bc:	d65f03c0 	ret
    800016c0:	b0000060 	adrp	x0, 8000e000 <psci_ns_context+0xb20>
    800016c4:	9100b3e2 	add	x2, sp, #0x2c
    800016c8:	f9410000 	ldr	x0, [x0, #512]
    800016cc:	9400091d 	bl	80003b40 <sc_misc_otp_fuse_read>
    800016d0:	92401c00 	and	x0, x0, #0xff
    800016d4:	b9402fe1 	ldr	w1, [sp, #44]
    800016d8:	a9000660 	stp	x0, x1, [x19]
    800016dc:	2a1303e0 	mov	w0, w19
    800016e0:	f9400bf3 	ldr	x19, [sp, #16]
    800016e4:	a8c37bfd 	ldp	x29, x30, [sp], #48
    800016e8:	d65f03c0 	ret
    800016ec:	b0000060 	adrp	x0, 8000e000 <psci_ns_context+0xb20>
    800016f0:	2a0303e2 	mov	w2, w3
    800016f4:	f9410000 	ldr	x0, [x0, #512]
    800016f8:	94000924 	bl	80003b88 <sc_misc_otp_fuse_write>
    800016fc:	92401c00 	and	x0, x0, #0xff
    80001700:	f9000260 	str	x0, [x19]
    80001704:	2a1303e0 	mov	w0, w19
    80001708:	f9400bf3 	ldr	x19, [sp, #16]
    8000170c:	a8c37bfd 	ldp	x29, x30, [sp], #48
    80001710:	d65f03c0 	ret
    80001714:	00000000 	.inst	0x00000000 ; undefined

0000000080001718 <imx_misc_set_temp_handler>:
    80001718:	a9bf7bfd 	stp	x29, x30, [sp, #-16]!
    8000171c:	b0000060 	adrp	x0, 8000e000 <psci_ns_context+0xb20>
    80001720:	910003fd 	mov	x29, sp
    80001724:	f9410000 	ldr	x0, [x0, #512]
    80001728:	94000926 	bl	80003bc0 <sc_misc_set_temp>
    8000172c:	12001c00 	and	w0, w0, #0xff
    80001730:	a8c17bfd 	ldp	x29, x30, [sp], #16
    80001734:	d65f03c0 	ret

0000000080001738 <imx_get_cpu_rev>:
    80001738:	f100001f 	cmp	x0, #0x0
    8000173c:	fa401824 	ccmp	x1, #0x0, #0x4, ne  // ne = any
    80001740:	540002e0 	b.eq	8000179c <imx_get_cpu_rev+0x64>  // b.none
    80001744:	a9bd7bfd 	stp	x29, x30, [sp, #-48]!
    80001748:	528001c2 	mov	w2, #0xe                   	// #14
    8000174c:	910003fd 	mov	x29, sp
    80001750:	a90153f3 	stp	x19, x20, [sp, #16]
    80001754:	aa0003f3 	mov	x19, x0
    80001758:	b0000060 	adrp	x0, 8000e000 <psci_ns_context+0xb20>
    8000175c:	aa0103f4 	mov	x20, x1
    80001760:	9100b3e3 	add	x3, sp, #0x2c
    80001764:	f9410000 	ldr	x0, [x0, #512]
    80001768:	52802c61 	mov	w1, #0x163                 	// #355
    8000176c:	940008e1 	bl	80003af0 <sc_misc_get_control>
    80001770:	72001c00 	ands	w0, w0, #0xff
    80001774:	540000e1 	b.ne	80001790 <imx_get_cpu_rev+0x58>  // b.any
    80001778:	b9402fe1 	ldr	w1, [sp, #44]
    8000177c:	52800000 	mov	w0, #0x0                   	// #0
    80001780:	12001022 	and	w2, w1, #0x1f
    80001784:	d3452021 	ubfx	x1, x1, #5, #4
    80001788:	b9000281 	str	w1, [x20]
    8000178c:	b9000262 	str	w2, [x19]
    80001790:	a94153f3 	ldp	x19, x20, [sp, #16]
    80001794:	a8c37bfd 	ldp	x29, x30, [sp], #48
    80001798:	d65f03c0 	ret
    8000179c:	12800000 	mov	w0, #0xffffffff            	// #-1
    800017a0:	d65f03c0 	ret
    800017a4:	00000000 	.inst	0x00000000 ; undefined

00000000800017a8 <imx_buildinfo_handler>:
    800017a8:	b4000061 	cbz	x1, 800017b4 <imx_buildinfo_handler+0xc>
    800017ac:	92800000 	mov	x0, #0xffffffffffffffff    	// #-1
    800017b0:	d65f03c0 	ret
    800017b4:	a9be7bfd 	stp	x29, x30, [sp, #-32]!
    800017b8:	d0000020 	adrp	x0, 80007000 <vprintf+0x238>
    800017bc:	910d0000 	add	x0, x0, #0x340
    800017c0:	910003fd 	mov	x29, sp
    800017c4:	f9000fff 	str	xzr, [sp, #24]
    800017c8:	528005a1 	mov	w1, #0x2d                  	// #45
    800017cc:	940016c9 	bl	800072f0 <strchr>
    800017d0:	aa0003e1 	mov	x1, x0
    800017d4:	b4000120 	cbz	x0, 800017f8 <imx_buildinfo_handler+0x50>
    800017d8:	39400422 	ldrb	w2, [x1, #1]
    800017dc:	91000400 	add	x0, x0, #0x1
    800017e0:	71019c5f 	cmp	w2, #0x67
    800017e4:	54ffff21 	b.ne	800017c8 <imx_buildinfo_handler+0x20>  // b.any
    800017e8:	91000821 	add	x1, x1, #0x2
    800017ec:	910063e0 	add	x0, sp, #0x18
    800017f0:	d28000e2 	mov	x2, #0x7                   	// #7
    800017f4:	94001519 	bl	80006c58 <memcpy>
    800017f8:	f9400fe0 	ldr	x0, [sp, #24]
    800017fc:	a8c27bfd 	ldp	x29, x30, [sp], #32
    80001800:	d65f03c0 	ret
    80001804:	00000000 	.inst	0x00000000 ; undefined

0000000080001808 <imx_svc_smc_handler>:
    80001808:	a9be7bfd 	stp	x29, x30, [sp, #-32]!
    8000180c:	52800125 	mov	w5, #0x9                   	// #9
    80001810:	72b84005 	movk	w5, #0xc200, lsl #16
    80001814:	910003fd 	mov	x29, sp
    80001818:	f9000bf3 	str	x19, [sp, #16]
    8000181c:	6b05001f 	cmp	w0, w5
    80001820:	aa0603f3 	mov	x19, x6
    80001824:	54000540 	b.eq	800018cc <imx_svc_smc_handler+0xc4>  // b.none
    80001828:	54000368 	b.hi	80001894 <imx_svc_smc_handler+0x8c>  // b.pmore
    8000182c:	5280004a 	mov	w10, #0x2                   	// #2
    80001830:	72b8400a 	movk	w10, #0xc200, lsl #16
    80001834:	6b0a001f 	cmp	w0, w10
    80001838:	54000580 	b.eq	800018e8 <imx_svc_smc_handler+0xe0>  // b.none
    8000183c:	52800065 	mov	w5, #0x3                   	// #3
    80001840:	72b84005 	movk	w5, #0xc200, lsl #16
    80001844:	6b05001f 	cmp	w0, w5
    80001848:	54000101 	b.ne	80001868 <imx_svc_smc_handler+0x60>  // b.any
    8000184c:	97ffffd7 	bl	800017a8 <imx_buildinfo_handler>
    80001850:	aa0003e1 	mov	x1, x0
    80001854:	f9000261 	str	x1, [x19]
    80001858:	aa1303e0 	mov	x0, x19
    8000185c:	f9400bf3 	ldr	x19, [sp, #16]
    80001860:	a8c27bfd 	ldp	x29, x30, [sp], #32
    80001864:	d65f03c0 	ret
    80001868:	52800024 	mov	w4, #0x1                   	// #1
    8000186c:	72b84004 	movk	w4, #0xc200, lsl #16
    80001870:	6b04001f 	cmp	w0, w4
    80001874:	540004e1 	b.ne	80001910 <imx_svc_smc_handler+0x108>  // b.any
    80001878:	97fffef8 	bl	80001458 <imx_cpufreq_handler>
    8000187c:	93407c01 	sxtw	x1, w0
    80001880:	f9000261 	str	x1, [x19]
    80001884:	aa1303e0 	mov	x0, x19
    80001888:	f9400bf3 	ldr	x19, [sp, #16]
    8000188c:	a8c27bfd 	ldp	x29, x30, [sp], #32
    80001890:	d65f03c0 	ret
    80001894:	52800165 	mov	w5, #0xb                   	// #11
    80001898:	72b84005 	movk	w5, #0xc200, lsl #16
    8000189c:	6b05001f 	cmp	w0, w5
    800018a0:	54000449 	b.ls	80001928 <imx_svc_smc_handler+0x120>  // b.plast
    800018a4:	110004a5 	add	w5, w5, #0x1
    800018a8:	6b05001f 	cmp	w0, w5
    800018ac:	54000321 	b.ne	80001910 <imx_svc_smc_handler+0x108>  // b.any
    800018b0:	97ffff9a 	bl	80001718 <imx_misc_set_temp_handler>
    800018b4:	93407c01 	sxtw	x1, w0
    800018b8:	f9000261 	str	x1, [x19]
    800018bc:	aa1303e0 	mov	x0, x19
    800018c0:	f9400bf3 	ldr	x19, [sp, #16]
    800018c4:	a8c27bfd 	ldp	x29, x30, [sp], #32
    800018c8:	d65f03c0 	ret
    800018cc:	97ffff5d 	bl	80001640 <imx_wakeup_src_handler>
    800018d0:	93407c01 	sxtw	x1, w0
    800018d4:	f9000261 	str	x1, [x19]
    800018d8:	aa1303e0 	mov	x0, x19
    800018dc:	f9400bf3 	ldr	x19, [sp, #16]
    800018e0:	a8c27bfd 	ldp	x29, x30, [sp], #32
    800018e4:	d65f03c0 	ret
    800018e8:	aa0403e5 	mov	x5, x4
    800018ec:	aa0303e4 	mov	x4, x3
    800018f0:	aa0203e3 	mov	x3, x2
    800018f4:	aa0103e2 	mov	x2, x1
    800018f8:	aa1303e1 	mov	x1, x19
    800018fc:	97fffeeb 	bl	800014a8 <imx_srtc_handler>
    80001900:	93407c00 	sxtw	x0, w0
    80001904:	f9400bf3 	ldr	x19, [sp, #16]
    80001908:	a8c27bfd 	ldp	x29, x30, [sp], #32
    8000190c:	d65f03c0 	ret
    80001910:	92800001 	mov	x1, #0xffffffffffffffff    	// #-1
    80001914:	f9000261 	str	x1, [x19]
    80001918:	aa1303e0 	mov	x0, x19
    8000191c:	f9400bf3 	ldr	x19, [sp, #16]
    80001920:	a8c27bfd 	ldp	x29, x30, [sp], #32
    80001924:	d65f03c0 	ret
    80001928:	aa0203e3 	mov	x3, x2
    8000192c:	aa0103e2 	mov	x2, x1
    80001930:	aa1303e1 	mov	x1, x19
    80001934:	97ffff51 	bl	80001678 <imx_otp_handler>
    80001938:	93407c00 	sxtw	x0, w0
    8000193c:	f9400bf3 	ldr	x19, [sp, #16]
    80001940:	a8c27bfd 	ldp	x29, x30, [sp], #32
    80001944:	d65f03c0 	ret

0000000080001948 <plat_svc_setup>:
    80001948:	a9bf7bfd 	stp	x29, x30, [sp, #-16]!
    8000194c:	d0000020 	adrp	x0, 80007000 <vprintf+0x238>
    80001950:	911c2000 	add	x0, x0, #0x708
    80001954:	910003fd 	mov	x29, sp
    80001958:	94001192 	bl	80005fa0 <tf_log>
    8000195c:	52800000 	mov	w0, #0x0                   	// #0
    80001960:	a8c17bfd 	ldp	x29, x30, [sp], #16
    80001964:	d65f03c0 	ret

0000000080001968 <xlat_arch_current_el>:
    80001968:	d5384240 	mrs	x0, currentel
    8000196c:	53020c00 	ubfx	w0, w0, #2, #2
    80001970:	d65f03c0 	ret
    80001974:	00000000 	.inst	0x00000000 ; undefined

0000000080001978 <xlat_arch_get_xn_desc>:
    80001978:	71000c1f 	cmp	w0, #0x3
    8000197c:	d2e00801 	mov	x1, #0x40000000000000      	// #18014398509481984
    80001980:	d2e00400 	mov	x0, #0x20000000000000      	// #9007199254740992
    80001984:	9a800020 	csel	x0, x1, x0, eq  // eq = none
    80001988:	d65f03c0 	ret
    8000198c:	00000000 	.inst	0x00000000 ; undefined

0000000080001990 <init_xlat_tables>:
    80001990:	a9be7bfd 	stp	x29, x30, [sp, #-32]!
    80001994:	910003fd 	mov	x29, sp
    80001998:	940000bc 	bl	80001c88 <print_mmap>
    8000199c:	d2800000 	mov	x0, #0x0                   	// #0
    800019a0:	910043e4 	add	x4, sp, #0x10
    800019a4:	910063e3 	add	x3, sp, #0x18
    800019a8:	90000061 	adrp	x1, 8000d000 <imx_gicv3_ctx+0x26c0>
    800019ac:	52800022 	mov	w2, #0x1                   	// #1
    800019b0:	910a0021 	add	x1, x1, #0x280
    800019b4:	9400010b 	bl	80001de0 <init_xlation_table>
    800019b8:	f9400be1 	ldr	x1, [sp, #16]
    800019bc:	d28000a0 	mov	x0, #0x5                   	// #5
    800019c0:	f2540c3f 	tst	x1, #0xf00000000000
    800019c4:	54000181 	b.ne	800019f4 <init_xlat_tables+0x64>  // b.any
    800019c8:	f256043f 	tst	x1, #0xc0000000000
    800019cc:	d2800080 	mov	x0, #0x4                   	// #4
    800019d0:	54000121 	b.ne	800019f4 <init_xlat_tables+0x64>  // b.any
    800019d4:	f258043f 	tst	x1, #0x30000000000
    800019d8:	d2800060 	mov	x0, #0x3                   	// #3
    800019dc:	540000c1 	b.ne	800019f4 <init_xlat_tables+0x64>  // b.any
    800019e0:	f25c0c3f 	tst	x1, #0xf000000000
    800019e4:	d2800040 	mov	x0, #0x2                   	// #2
    800019e8:	54000061 	b.ne	800019f4 <init_xlat_tables+0x64>  // b.any
    800019ec:	f2600c3f 	tst	x1, #0xf00000000
    800019f0:	9a9f07e0 	cset	x0, ne  // ne = any
    800019f4:	90000061 	adrp	x1, 8000d000 <imx_gicv3_ctx+0x26c0>
    800019f8:	f9015020 	str	x0, [x1, #672]
    800019fc:	a8c27bfd 	ldp	x29, x30, [sp], #32
    80001a00:	d65f03c0 	ret
    80001a04:	00000000 	.inst	0x00000000 ; undefined

0000000080001a08 <enable_mmu_el3>:
    80001a08:	d2809fe1 	mov	x1, #0x4ff                 	// #1279
    80001a0c:	f2a00881 	movk	x1, #0x44, lsl #16
    80001a10:	d51ea201 	msr	mair_el3, x1
    80001a14:	d50e871f 	tlbi	alle3
    80001a18:	90000061 	adrp	x1, 8000d000 <imx_gicv3_ctx+0x26c0>
    80001a1c:	f27f001f 	tst	x0, #0x2
    80001a20:	d286a403 	mov	x3, #0x3520                	// #13600
    80001a24:	d2800402 	mov	x2, #0x20                  	// #32
    80001a28:	f9415021 	ldr	x1, [x1, #672]
    80001a2c:	9a831042 	csel	x2, x2, x3, ne  // ne = any
    80001a30:	d2b01003 	mov	x3, #0x80800000            	// #2155872256
    80001a34:	aa014041 	orr	x1, x2, x1, lsl #16
    80001a38:	aa030021 	orr	x1, x1, x3
    80001a3c:	d51e2041 	msr	tcr_el3, x1
    80001a40:	90000061 	adrp	x1, 8000d000 <imx_gicv3_ctx+0x26c0>
    80001a44:	910a0021 	add	x1, x1, #0x280
    80001a48:	d51e2001 	msr	ttbr0_el3, x1
    80001a4c:	d5033b9f 	dsb	ish
    80001a50:	d5033fdf 	isb
    80001a54:	d53e1002 	mrs	x2, sctlr_el3
    80001a58:	52800023 	mov	w3, #0x1                   	// #1
    80001a5c:	f240001f 	tst	x0, #0x1
    80001a60:	121d7841 	and	w1, w2, #0xfffffffb
    80001a64:	528000a0 	mov	w0, #0x5                   	// #5
    80001a68:	72a00103 	movk	w3, #0x8, lsl #16
    80001a6c:	72a00100 	movk	w0, #0x8, lsl #16
    80001a70:	2a030021 	orr	w1, w1, w3
    80001a74:	2a020000 	orr	w0, w0, w2
    80001a78:	1a810000 	csel	w0, w0, w1, eq  // eq = none
    80001a7c:	d51e1000 	msr	sctlr_el3, x0
    80001a80:	d5033fdf 	isb
    80001a84:	d65f03c0 	ret

0000000080001a88 <enable_mmu_direct_el3>:
    80001a88:	17ffffe0 	b	80001a08 <enable_mmu_el3>
    80001a8c:	00000000 	.inst	0x00000000 ; undefined

0000000080001a90 <init_xlation_table_inner>:
    80001a90:	a9ba7bfd 	stp	x29, x30, [sp, #-96]!
    80001a94:	71000c7f 	cmp	w3, #0x3
    80001a98:	910003fd 	mov	x29, sp
    80001a9c:	a90363f7 	stp	x23, x24, [sp, #48]
    80001aa0:	2a0303f8 	mov	w24, w3
    80001aa4:	0b030c63 	add	w3, w3, w3, lsl #3
    80001aa8:	528004f7 	mov	w23, #0x27                  	// #39
    80001aac:	4b0302e3 	sub	w3, w23, w3
    80001ab0:	a9025bf5 	stp	x21, x22, [sp, #32]
    80001ab4:	d2800036 	mov	x22, #0x1                   	// #1
    80001ab8:	d2803ff7 	mov	x23, #0x1ff                 	// #511
    80001abc:	a9046bf9 	stp	x25, x26, [sp, #64]
    80001ac0:	d2800079 	mov	x25, #0x3                   	// #3
    80001ac4:	9a960339 	csel	x25, x25, x22, eq  // eq = none
    80001ac8:	9000007a 	adrp	x26, 8000d000 <imx_gicv3_ctx+0x26c0>
    80001acc:	b2760339 	orr	x25, x25, #0x400
    80001ad0:	9111635a 	add	x26, x26, #0x458
    80001ad4:	a90153f3 	stp	x19, x20, [sp, #16]
    80001ad8:	aa0203f4 	mov	x20, x2
    80001adc:	a90573fb 	stp	x27, x28, [sp, #80]
    80001ae0:	d000007b 	adrp	x27, 8000f000 <xlat_tables>
    80001ae4:	9100037b 	add	x27, x27, #0x0
    80001ae8:	9ac322d6 	lsl	x22, x22, x3
    80001aec:	9ac322f7 	lsl	x23, x23, x3
    80001af0:	a940cc03 	ldp	x3, x19, [x0, #8]
    80001af4:	b4000473 	cbz	x19, 80001b80 <init_xlation_table_inner+0xf0>
    80001af8:	8b030262 	add	x2, x19, x3
    80001afc:	d1000442 	sub	x2, x2, #0x1
    80001b00:	eb01005f 	cmp	x2, x1
    80001b04:	54000483 	b.cc	80001b94 <init_xlation_table_inner+0x104>  // b.lo, b.ul, b.last
    80001b08:	8b16003c 	add	x28, x1, x22
    80001b0c:	d1000782 	sub	x2, x28, #0x1
    80001b10:	eb03005f 	cmp	x2, x3
    80001b14:	540003a3 	b.cc	80001b88 <init_xlation_table_inner+0xf8>  // b.lo, b.ul, b.last
    80001b18:	35000438 	cbnz	w24, 80001b9c <init_xlation_table_inner+0x10c>
    80001b1c:	b9400342 	ldr	w2, [x26]
    80001b20:	11000703 	add	w3, w24, #0x1
    80001b24:	11000444 	add	w4, w2, #0x1
    80001b28:	b9000344 	str	w4, [x26]
    80001b2c:	d3747c42 	ubfiz	x2, x2, #12, #32
    80001b30:	8b1b0042 	add	x2, x2, x27
    80001b34:	b2400453 	orr	x19, x2, #0x3
    80001b38:	97ffffd6 	bl	80001a90 <init_xlation_table_inner>
    80001b3c:	aa1c03e1 	mov	x1, x28
    80001b40:	aa1403e2 	mov	x2, x20
    80001b44:	f8008453 	str	x19, [x2], #8
    80001b48:	aa0203f4 	mov	x20, x2
    80001b4c:	ea17003f 	tst	x1, x23
    80001b50:	540000a0 	b.eq	80001b64 <init_xlation_table_inner+0xd4>  // b.none
    80001b54:	d1000423 	sub	x3, x1, #0x1
    80001b58:	b27f7be2 	mov	x2, #0xfffffffe            	// #4294967294
    80001b5c:	eb02007f 	cmp	x3, x2
    80001b60:	54fffc89 	b.ls	80001af0 <init_xlation_table_inner+0x60>  // b.plast
    80001b64:	a94153f3 	ldp	x19, x20, [sp, #16]
    80001b68:	a9425bf5 	ldp	x21, x22, [sp, #32]
    80001b6c:	a94363f7 	ldp	x23, x24, [sp, #48]
    80001b70:	a9446bf9 	ldp	x25, x26, [sp, #64]
    80001b74:	a94573fb 	ldp	x27, x28, [sp, #80]
    80001b78:	a8c67bfd 	ldp	x29, x30, [sp], #96
    80001b7c:	d65f03c0 	ret
    80001b80:	8b160021 	add	x1, x1, x22
    80001b84:	17ffffef 	b	80001b40 <init_xlation_table_inner+0xb0>
    80001b88:	aa1c03e1 	mov	x1, x28
    80001b8c:	d2800013 	mov	x19, #0x0                   	// #0
    80001b90:	17ffffec 	b	80001b40 <init_xlation_table_inner+0xb0>
    80001b94:	91008000 	add	x0, x0, #0x20
    80001b98:	17ffffed 	b	80001b4c <init_xlation_table_inner+0xbc>
    80001b9c:	aa0003e4 	mov	x4, x0
    80001ba0:	aa0303e6 	mov	x6, x3
    80001ba4:	12800007 	mov	w7, #0xffffffff            	// #-1
    80001ba8:	d10004c5 	sub	x5, x6, #0x1
    80001bac:	8b1300b3 	add	x19, x5, x19
    80001bb0:	eb13003f 	cmp	x1, x19
    80001bb4:	54000148 	b.hi	80001bdc <init_xlation_table_inner+0x14c>  // b.pmore
    80001bb8:	35000087 	cbnz	w7, 80001bc8 <init_xlation_table_inner+0x138>
    80001bbc:	b9401885 	ldr	w5, [x4, #24]
    80001bc0:	6b0502bf 	cmp	w21, w5
    80001bc4:	540000c0 	b.eq	80001bdc <init_xlation_table_inner+0x14c>  // b.none
    80001bc8:	eb13005f 	cmp	x2, x19
    80001bcc:	52800007 	mov	w7, #0x0                   	// #0
    80001bd0:	fa4190c2 	ccmp	x6, x1, #0x2, ls  // ls = plast
    80001bd4:	54fffa48 	b.hi	80001b1c <init_xlation_table_inner+0x8c>  // b.pmore
    80001bd8:	b9401895 	ldr	w21, [x4, #24]
    80001bdc:	f9401893 	ldr	x19, [x4, #48]
    80001be0:	91008084 	add	x4, x4, #0x20
    80001be4:	b4000093 	cbz	x19, 80001bf4 <init_xlation_table_inner+0x164>
    80001be8:	f9400486 	ldr	x6, [x4, #8]
    80001bec:	eb06005f 	cmp	x2, x6
    80001bf0:	54fffdc2 	b.cs	80001ba8 <init_xlation_table_inner+0x118>  // b.hs, b.nlast
    80001bf4:	35fff947 	cbnz	w7, 80001b1c <init_xlation_table_inner+0x8c>
    80001bf8:	90000064 	adrp	x4, 8000d000 <imx_gicv3_ctx+0x26c0>
    80001bfc:	d37f7ea5 	ubfiz	x5, x21, #1, #32
    80001c00:	f9400002 	ldr	x2, [x0]
    80001c04:	f27d02bf 	tst	x21, #0x8
    80001c08:	f9415484 	ldr	x4, [x4, #680]
    80001c0c:	8b020022 	add	x2, x1, x2
    80001c10:	cb030043 	sub	x3, x2, x3
    80001c14:	927b00a2 	and	x2, x5, #0x20
    80001c18:	aa020063 	orr	x3, x3, x2
    80001c1c:	aa040322 	orr	x2, x25, x4
    80001c20:	9a9f17e4 	cset	x4, eq  // eq = none
    80001c24:	aa030043 	orr	x3, x2, x3
    80001c28:	72000aa2 	ands	w2, w21, #0x7
    80001c2c:	aa041c64 	orr	x4, x3, x4, lsl #7
    80001c30:	54000200 	b.eq	80001c70 <init_xlation_table_inner+0x1e0>  // b.none
    80001c34:	52800503 	mov	w3, #0x28                  	// #40
    80001c38:	6a0302bf 	tst	w21, w3
    80001c3c:	54000080 	b.eq	80001c4c <init_xlation_table_inner+0x1bc>  // b.none
    80001c40:	90000063 	adrp	x3, 8000d000 <imx_gicv3_ctx+0x26c0>
    80001c44:	f9415863 	ldr	x3, [x3, #688]
    80001c48:	aa030084 	orr	x4, x4, x3
    80001c4c:	7100085f 	cmp	w2, #0x2
    80001c50:	d2804113 	mov	x19, #0x208                 	// #520
    80001c54:	b2780482 	orr	x2, x4, #0x300
    80001c58:	aa130093 	orr	x19, x4, x19
    80001c5c:	9a821273 	csel	x19, x19, x2, ne  // ne = any
    80001c60:	b100067f 	cmn	x19, #0x1
    80001c64:	54fff5c0 	b.eq	80001b1c <init_xlation_table_inner+0x8c>  // b.none
    80001c68:	aa1c03e1 	mov	x1, x28
    80001c6c:	17ffffb5 	b	80001b40 <init_xlation_table_inner+0xb0>
    80001c70:	90000063 	adrp	x3, 8000d000 <imx_gicv3_ctx+0x26c0>
    80001c74:	d2804082 	mov	x2, #0x204                 	// #516
    80001c78:	f9415873 	ldr	x19, [x3, #688]
    80001c7c:	aa130093 	orr	x19, x4, x19
    80001c80:	aa020273 	orr	x19, x19, x2
    80001c84:	17fffff7 	b	80001c60 <init_xlation_table_inner+0x1d0>

0000000080001c88 <print_mmap>:
    80001c88:	d65f03c0 	ret
    80001c8c:	00000000 	.inst	0x00000000 ; undefined

0000000080001c90 <mmap_add_region>:
    80001c90:	b4000682 	cbz	x2, 80001d60 <mmap_add_region+0xd0>
    80001c94:	a9bc7bfd 	stp	x29, x30, [sp, #-64]!
    80001c98:	910003fd 	mov	x29, sp
    80001c9c:	a9025bf5 	stp	x21, x22, [sp, #32]
    80001ca0:	aa0203f5 	mov	x21, x2
    80001ca4:	90000062 	adrp	x2, 8000d000 <imx_gicv3_ctx+0x26c0>
    80001ca8:	910ae042 	add	x2, x2, #0x2b8
    80001cac:	a90153f3 	stp	x19, x20, [sp, #16]
    80001cb0:	aa0103f4 	mov	x20, x1
    80001cb4:	a90363f7 	stp	x23, x24, [sp, #48]
    80001cb8:	aa0003f6 	mov	x22, x0
    80001cbc:	2a0303f8 	mov	w24, w3
    80001cc0:	f9400441 	ldr	x1, [x2, #8]
    80001cc4:	aa0203e4 	mov	x4, x2
    80001cc8:	91008040 	add	x0, x2, #0x20
    80001ccc:	eb01029f 	cmp	x20, x1
    80001cd0:	540000a8 	b.hi	80001ce4 <mmap_add_region+0x54>  // b.pmore
    80001cd4:	14000025 	b	80001d68 <mmap_add_region+0xd8>
    80001cd8:	f9400481 	ldr	x1, [x4, #8]
    80001cdc:	eb14003f 	cmp	x1, x20
    80001ce0:	54000422 	b.cs	80001d64 <mmap_add_region+0xd4>  // b.hs, b.nlast
    80001ce4:	f9400881 	ldr	x1, [x4, #16]
    80001ce8:	aa0403f3 	mov	x19, x4
    80001cec:	91008084 	add	x4, x4, #0x20
    80001cf0:	b5ffff41 	cbnz	x1, 80001cd8 <mmap_add_region+0x48>
    80001cf4:	aa0403e0 	mov	x0, x4
    80001cf8:	91060042 	add	x2, x2, #0x180
    80001cfc:	aa1303e1 	mov	x1, x19
    80001d00:	cb130042 	sub	x2, x2, x19
    80001d04:	940013dd 	bl	80006c78 <memmove>
    80001d08:	90000060 	adrp	x0, 8000d000 <imx_gicv3_ctx+0x26c0>
    80001d0c:	d10006b7 	sub	x23, x21, #0x1
    80001d10:	a9005276 	stp	x22, x20, [x19]
    80001d14:	8b1602f7 	add	x23, x23, x22
    80001d18:	f9423001 	ldr	x1, [x0, #1120]
    80001d1c:	f9000a75 	str	x21, [x19, #16]
    80001d20:	b9001a78 	str	w24, [x19, #24]
    80001d24:	eb17003f 	cmp	x1, x23
    80001d28:	54000042 	b.cs	80001d30 <mmap_add_region+0xa0>  // b.hs, b.nlast
    80001d2c:	f9023017 	str	x23, [x0, #1120]
    80001d30:	90000060 	adrp	x0, 8000d000 <imx_gicv3_ctx+0x26c0>
    80001d34:	d1000694 	sub	x20, x20, #0x1
    80001d38:	8b150294 	add	x20, x20, x21
    80001d3c:	f9423401 	ldr	x1, [x0, #1128]
    80001d40:	eb14003f 	cmp	x1, x20
    80001d44:	54000042 	b.cs	80001d4c <mmap_add_region+0xbc>  // b.hs, b.nlast
    80001d48:	f9023414 	str	x20, [x0, #1128]
    80001d4c:	a94153f3 	ldp	x19, x20, [sp, #16]
    80001d50:	a9425bf5 	ldp	x21, x22, [sp, #32]
    80001d54:	a94363f7 	ldp	x23, x24, [sp, #48]
    80001d58:	a8c47bfd 	ldp	x29, x30, [sp], #64
    80001d5c:	d65f03c0 	ret
    80001d60:	d65f03c0 	ret
    80001d64:	91010260 	add	x0, x19, #0x40
    80001d68:	eb01029f 	cmp	x20, x1
    80001d6c:	54000141 	b.ne	80001d94 <mmap_add_region+0x104>  // b.any
    80001d70:	f9400881 	ldr	x1, [x4, #16]
    80001d74:	aa0403f3 	mov	x19, x4
    80001d78:	91008084 	add	x4, x4, #0x20
    80001d7c:	eb15003f 	cmp	x1, x21
    80001d80:	54fffba9 	b.ls	80001cf4 <mmap_add_region+0x64>  // b.plast
    80001d84:	f9400481 	ldr	x1, [x4, #8]
    80001d88:	eb14003f 	cmp	x1, x20
    80001d8c:	54ffff20 	b.eq	80001d70 <mmap_add_region+0xe0>  // b.none
    80001d90:	91010260 	add	x0, x19, #0x40
    80001d94:	aa0403f3 	mov	x19, x4
    80001d98:	17ffffd8 	b	80001cf8 <mmap_add_region+0x68>
    80001d9c:	00000000 	.inst	0x00000000 ; undefined

0000000080001da0 <mmap_add>:
    80001da0:	f9400802 	ldr	x2, [x0, #16]
    80001da4:	b40001c2 	cbz	x2, 80001ddc <mmap_add+0x3c>
    80001da8:	a9be7bfd 	stp	x29, x30, [sp, #-32]!
    80001dac:	910003fd 	mov	x29, sp
    80001db0:	f9000bf3 	str	x19, [sp, #16]
    80001db4:	aa0003f3 	mov	x19, x0
    80001db8:	b9401a63 	ldr	w3, [x19, #24]
    80001dbc:	f9400661 	ldr	x1, [x19, #8]
    80001dc0:	f8420660 	ldr	x0, [x19], #32
    80001dc4:	97ffffb3 	bl	80001c90 <mmap_add_region>
    80001dc8:	f9400a62 	ldr	x2, [x19, #16]
    80001dcc:	b5ffff62 	cbnz	x2, 80001db8 <mmap_add+0x18>
    80001dd0:	f9400bf3 	ldr	x19, [sp, #16]
    80001dd4:	a8c27bfd 	ldp	x29, x30, [sp], #32
    80001dd8:	d65f03c0 	ret
    80001ddc:	d65f03c0 	ret

0000000080001de0 <init_xlation_table>:
    80001de0:	a9bc7bfd 	stp	x29, x30, [sp, #-64]!
    80001de4:	910003fd 	mov	x29, sp
    80001de8:	a90153f3 	stp	x19, x20, [sp, #16]
    80001dec:	aa0303f4 	mov	x20, x3
    80001df0:	aa0403f3 	mov	x19, x4
    80001df4:	a9025bf5 	stp	x21, x22, [sp, #32]
    80001df8:	aa0103f6 	mov	x22, x1
    80001dfc:	aa0003f5 	mov	x21, x0
    80001e00:	a90363f7 	stp	x23, x24, [sp, #48]
    80001e04:	2a0203f7 	mov	w23, w2
    80001e08:	97fffed8 	bl	80001968 <xlat_arch_current_el>
    80001e0c:	2a0003f8 	mov	w24, w0
    80001e10:	97fffeda 	bl	80001978 <xlat_arch_get_xn_desc>
    80001e14:	71000f1f 	cmp	w24, #0x3
    80001e18:	90000066 	adrp	x6, 8000d000 <imx_gicv3_ctx+0x26c0>
    80001e1c:	9a9f17e4 	cset	x4, eq  // eq = none
    80001e20:	90000065 	adrp	x5, 8000d000 <imx_gicv3_ctx+0x26c0>
    80001e24:	2a1703e3 	mov	w3, w23
    80001e28:	aa1603e2 	mov	x2, x22
    80001e2c:	d37ae484 	lsl	x4, x4, #6
    80001e30:	aa1503e1 	mov	x1, x21
    80001e34:	f90158c0 	str	x0, [x6, #688]
    80001e38:	90000060 	adrp	x0, 8000d000 <imx_gicv3_ctx+0x26c0>
    80001e3c:	f90154a4 	str	x4, [x5, #680]
    80001e40:	910ae000 	add	x0, x0, #0x2b8
    80001e44:	97ffff13 	bl	80001a90 <init_xlation_table_inner>
    80001e48:	90000061 	adrp	x1, 8000d000 <imx_gicv3_ctx+0x26c0>
    80001e4c:	90000060 	adrp	x0, 8000d000 <imx_gicv3_ctx+0x26c0>
    80001e50:	a9425bf5 	ldp	x21, x22, [sp, #32]
    80001e54:	f9423421 	ldr	x1, [x1, #1128]
    80001e58:	f9423000 	ldr	x0, [x0, #1120]
    80001e5c:	a94363f7 	ldp	x23, x24, [sp, #48]
    80001e60:	f9000281 	str	x1, [x20]
    80001e64:	f9000260 	str	x0, [x19]
    80001e68:	a94153f3 	ldp	x19, x20, [sp, #16]
    80001e6c:	a8c47bfd 	ldp	x29, x30, [sp], #64
    80001e70:	d65f03c0 	ret
    80001e74:	00000000 	.inst	0x00000000 ; undefined

0000000080001e78 <cci_init>:
    80001e78:	90000063 	adrp	x3, 8000d000 <imx_gicv3_ctx+0x26c0>
    80001e7c:	90000062 	adrp	x2, 8000d000 <imx_gicv3_ctx+0x26c0>
    80001e80:	f9023860 	str	x0, [x3, #1136]
    80001e84:	f9023c41 	str	x1, [x2, #1144]
    80001e88:	d65f03c0 	ret
    80001e8c:	00000000 	.inst	0x00000000 ; undefined

0000000080001e90 <cci_enable_snoop_dvm_reqs>:
    80001e90:	90000062 	adrp	x2, 8000d000 <imx_gicv3_ctx+0x26c0>
    80001e94:	90000061 	adrp	x1, 8000d000 <imx_gicv3_ctx+0x26c0>
    80001e98:	52800063 	mov	w3, #0x3                   	// #3
    80001e9c:	f9423c44 	ldr	x4, [x2, #1144]
    80001ea0:	f9423822 	ldr	x2, [x1, #1136]
    80001ea4:	b8a05880 	ldrsw	x0, [x4, w0, uxtw #2]
    80001ea8:	91000400 	add	x0, x0, #0x1
    80001eac:	d374cc00 	lsl	x0, x0, #12
    80001eb0:	b8226803 	str	w3, [x0, x2]
    80001eb4:	d5033b9f 	dsb	ish
    80001eb8:	f9423821 	ldr	x1, [x1, #1136]
    80001ebc:	91003021 	add	x1, x1, #0xc
    80001ec0:	b9400020 	ldr	w0, [x1]
    80001ec4:	3707ffe0 	tbnz	w0, #0, 80001ec0 <cci_enable_snoop_dvm_reqs+0x30>
    80001ec8:	d65f03c0 	ret
    80001ecc:	00000000 	.inst	0x00000000 ; undefined

0000000080001ed0 <cci_disable_snoop_dvm_reqs>:
    80001ed0:	90000062 	adrp	x2, 8000d000 <imx_gicv3_ctx+0x26c0>
    80001ed4:	90000061 	adrp	x1, 8000d000 <imx_gicv3_ctx+0x26c0>
    80001ed8:	12800063 	mov	w3, #0xfffffffc            	// #-4
    80001edc:	f9423c44 	ldr	x4, [x2, #1144]
    80001ee0:	f9423822 	ldr	x2, [x1, #1136]
    80001ee4:	b8a05880 	ldrsw	x0, [x4, w0, uxtw #2]
    80001ee8:	91000400 	add	x0, x0, #0x1
    80001eec:	d374cc00 	lsl	x0, x0, #12
    80001ef0:	b8226803 	str	w3, [x0, x2]
    80001ef4:	d5033b9f 	dsb	ish
    80001ef8:	f9423821 	ldr	x1, [x1, #1136]
    80001efc:	91003021 	add	x1, x1, #0xc
    80001f00:	b9400020 	ldr	w0, [x1]
    80001f04:	3707ffe0 	tbnz	w0, #0, 80001f00 <cci_disable_snoop_dvm_reqs+0x30>
    80001f08:	d65f03c0 	ret
    80001f0c:	00000000 	.inst	0x00000000 ; undefined

0000000080001f10 <gicd_read_igrpmodr>:
    80001f10:	53057c21 	lsr	w1, w1, #5
    80001f14:	91340000 	add	x0, x0, #0xd00
    80001f18:	531e7421 	lsl	w1, w1, #2
    80001f1c:	b8614800 	ldr	w0, [x0, w1, uxtw]
    80001f20:	d65f03c0 	ret
    80001f24:	00000000 	.inst	0x00000000 ; undefined

0000000080001f28 <gicd_write_igrpmodr>:
    80001f28:	53057c21 	lsr	w1, w1, #5
    80001f2c:	91340000 	add	x0, x0, #0xd00
    80001f30:	531e7421 	lsl	w1, w1, #2
    80001f34:	b8214802 	str	w2, [x0, w1, uxtw]
    80001f38:	d65f03c0 	ret
    80001f3c:	00000000 	.inst	0x00000000 ; undefined

0000000080001f40 <gicr_read_ipriorityr>:
    80001f40:	91404000 	add	x0, x0, #0x10, lsl #12
    80001f44:	121e7421 	and	w1, w1, #0xfffffffc
    80001f48:	91100000 	add	x0, x0, #0x400
    80001f4c:	b8614800 	ldr	w0, [x0, w1, uxtw]
    80001f50:	d65f03c0 	ret
    80001f54:	00000000 	.inst	0x00000000 ; undefined

0000000080001f58 <gicr_write_ipriorityr>:
    80001f58:	91404000 	add	x0, x0, #0x10, lsl #12
    80001f5c:	121e7421 	and	w1, w1, #0xfffffffc
    80001f60:	91100000 	add	x0, x0, #0x400
    80001f64:	b8214802 	str	w2, [x0, w1, uxtw]
    80001f68:	d65f03c0 	ret
    80001f6c:	00000000 	.inst	0x00000000 ; undefined

0000000080001f70 <gicv3_rdistif_mark_core_awake>:
    80001f70:	b9401402 	ldr	w2, [x0, #20]
    80001f74:	91005001 	add	x1, x0, #0x14
    80001f78:	37f800e2 	tbnz	w2, #31, 80001f94 <gicv3_rdistif_mark_core_awake+0x24>
    80001f7c:	b9401402 	ldr	w2, [x0, #20]
    80001f80:	121e7842 	and	w2, w2, #0xfffffffd
    80001f84:	b9001402 	str	w2, [x0, #20]
    80001f88:	b9400020 	ldr	w0, [x1]
    80001f8c:	3717ffe0 	tbnz	w0, #2, 80001f88 <gicv3_rdistif_mark_core_awake+0x18>
    80001f90:	d65f03c0 	ret
    80001f94:	b9401402 	ldr	w2, [x0, #20]
    80001f98:	121f7842 	and	w2, w2, #0xfffffffe
    80001f9c:	b9001402 	str	w2, [x0, #20]
    80001fa0:	b9400022 	ldr	w2, [x1]
    80001fa4:	37ffffe2 	tbnz	w2, #31, 80001fa0 <gicv3_rdistif_mark_core_awake+0x30>
    80001fa8:	17fffff5 	b	80001f7c <gicv3_rdistif_mark_core_awake+0xc>
    80001fac:	00000000 	.inst	0x00000000 ; undefined

0000000080001fb0 <gicv3_rdistif_mark_core_asleep>:
    80001fb0:	b9401402 	ldr	w2, [x0, #20]
    80001fb4:	91005001 	add	x1, x0, #0x14
    80001fb8:	321f0042 	orr	w2, w2, #0x2
    80001fbc:	b9001402 	str	w2, [x0, #20]
    80001fc0:	b9400020 	ldr	w0, [x1]
    80001fc4:	3617ffe0 	tbz	w0, #2, 80001fc0 <gicv3_rdistif_mark_core_asleep+0x10>
    80001fc8:	d65f03c0 	ret
    80001fcc:	00000000 	.inst	0x00000000 ; undefined

0000000080001fd0 <gicv3_rdistif_base_addrs_probe>:
    80001fd0:	a9bd7bfd 	stp	x29, x30, [sp, #-48]!
    80001fd4:	910003fd 	mov	x29, sp
    80001fd8:	a90153f3 	stp	x19, x20, [sp, #16]
    80001fdc:	aa0203f4 	mov	x20, x2
    80001fe0:	a9025bf5 	stp	x21, x22, [sp, #32]
    80001fe4:	aa0003f6 	mov	x22, x0
    80001fe8:	aa0303f5 	mov	x21, x3
    80001fec:	d503201f 	nop
    80001ff0:	f9400693 	ldr	x19, [x20, #8]
    80001ff4:	d378fe62 	lsr	x2, x19, #56
    80001ff8:	d360de61 	ubfx	x1, x19, #32, #24
    80001ffc:	53085e60 	ubfx	w0, w19, #8, #16
    80002000:	b4000075 	cbz	x21, 8000200c <gicv3_rdistif_base_addrs_probe+0x3c>
    80002004:	aa028020 	orr	x0, x1, x2, lsl #32
    80002008:	d63f02a0 	blr	x21
    8000200c:	f8205ad4 	str	x20, [x22, w0, uxtw #3]
    80002010:	91408294 	add	x20, x20, #0x20, lsl #12
    80002014:	3627fef3 	tbz	w19, #4, 80001ff0 <gicv3_rdistif_base_addrs_probe+0x20>
    80002018:	a94153f3 	ldp	x19, x20, [sp, #16]
    8000201c:	a9425bf5 	ldp	x21, x22, [sp, #32]
    80002020:	a8c37bfd 	ldp	x29, x30, [sp], #48
    80002024:	d65f03c0 	ret

0000000080002028 <gicv3_spis_config_defaults>:
    80002028:	a9bd7bfd 	stp	x29, x30, [sp, #-48]!
    8000202c:	910003fd 	mov	x29, sp
    80002030:	a90153f3 	stp	x19, x20, [sp, #16]
    80002034:	aa0003f4 	mov	x20, x0
    80002038:	b9400400 	ldr	w0, [x0, #4]
    8000203c:	531b1000 	ubfiz	w0, w0, #5, #5
    80002040:	34000380 	cbz	w0, 800020b0 <gicv3_spis_config_defaults+0x88>
    80002044:	f90013f5 	str	x21, [sp, #32]
    80002048:	11008015 	add	w21, w0, #0x20
    8000204c:	52800413 	mov	w19, #0x20                  	// #32
    80002050:	2a1303e1 	mov	w1, w19
    80002054:	aa1403e0 	mov	x0, x20
    80002058:	11008273 	add	w19, w19, #0x20
    8000205c:	12800002 	mov	w2, #0xffffffff            	// #-1
    80002060:	9400033a 	bl	80002d48 <gicd_write_igroupr>
    80002064:	6b1302bf 	cmp	w21, w19
    80002068:	54ffff48 	b.hi	80002050 <gicv3_spis_config_defaults+0x28>  // b.pmore
    8000206c:	52800413 	mov	w19, #0x20                  	// #32
    80002070:	2a1303e1 	mov	w1, w19
    80002074:	aa1403e0 	mov	x0, x20
    80002078:	11001273 	add	w19, w19, #0x4
    8000207c:	3201c3e2 	mov	w2, #0x80808080            	// #-2139062144
    80002080:	9400034a 	bl	80002da8 <gicd_write_ipriorityr>
    80002084:	6b1302bf 	cmp	w21, w19
    80002088:	54ffff48 	b.hi	80002070 <gicv3_spis_config_defaults+0x48>  // b.pmore
    8000208c:	52800413 	mov	w19, #0x20                  	// #32
    80002090:	2a1303e1 	mov	w1, w19
    80002094:	aa1403e0 	mov	x0, x20
    80002098:	11004273 	add	w19, w19, #0x10
    8000209c:	52800002 	mov	w2, #0x0                   	// #0
    800020a0:	94000346 	bl	80002db8 <gicd_write_icfgr>
    800020a4:	6b1302bf 	cmp	w21, w19
    800020a8:	54ffff48 	b.hi	80002090 <gicv3_spis_config_defaults+0x68>  // b.pmore
    800020ac:	f94013f5 	ldr	x21, [sp, #32]
    800020b0:	a94153f3 	ldp	x19, x20, [sp, #16]
    800020b4:	a8c37bfd 	ldp	x29, x30, [sp], #48
    800020b8:	d65f03c0 	ret
    800020bc:	00000000 	.inst	0x00000000 ; undefined

00000000800020c0 <gicv3_secure_spis_config_props>:
    800020c0:	a9bb7bfd 	stp	x29, x30, [sp, #-80]!
    800020c4:	910003fd 	mov	x29, sp
    800020c8:	a9025bf5 	stp	x21, x22, [sp, #32]
    800020cc:	34000882 	cbz	w2, 800021dc <gicv3_secure_spis_config_props+0x11c>
    800020d0:	51000442 	sub	w2, w2, #0x1
    800020d4:	91001035 	add	x21, x1, #0x4
    800020d8:	52800016 	mov	w22, #0x0                   	// #0
    800020dc:	a90153f3 	stp	x19, x20, [sp, #16]
    800020e0:	8b224ab5 	add	x21, x21, w2, uxtw #2
    800020e4:	aa0003f4 	mov	x20, x0
    800020e8:	aa0103f3 	mov	x19, x1
    800020ec:	a90363f7 	stp	x23, x24, [sp, #48]
    800020f0:	91340017 	add	x23, x0, #0xd00
    800020f4:	91401818 	add	x24, x0, #0x6, lsl #12
    800020f8:	f90023f9 	str	x25, [sp, #64]
    800020fc:	52800039 	mov	w25, #0x1                   	// #1
    80002100:	1400001d 	b	80002174 <gicv3_secure_spis_config_props+0xb4>
    80002104:	d3452403 	ubfx	x3, x0, #5, #5
    80002108:	321e02d6 	orr	w22, w22, #0x4
    8000210c:	12002401 	and	w1, w0, #0x3ff
    80002110:	1ac02320 	lsl	w0, w25, w0
    80002114:	531e7463 	lsl	w3, w3, #2
    80002118:	b8634ae4 	ldr	w4, [x23, w3, uxtw]
    8000211c:	2a040000 	orr	w0, w0, w4
    80002120:	b8234ae0 	str	w0, [x23, w3, uxtw]
    80002124:	aa1403e0 	mov	x0, x20
    80002128:	d3441442 	ubfx	x2, x2, #4, #2
    8000212c:	94000345 	bl	80002e40 <gicd_set_icfgr>
    80002130:	b9400262 	ldr	w2, [x19]
    80002134:	aa1403e0 	mov	x0, x20
    80002138:	79400261 	ldrh	w1, [x19]
    8000213c:	d34a4442 	ubfx	x2, x2, #10, #8
    80002140:	12002421 	and	w1, w1, #0x3ff
    80002144:	9400033b 	bl	80002e30 <gicd_set_ipriorityr>
    80002148:	d53800a3 	mrs	x3, mpidr_el1
    8000214c:	79400262 	ldrh	w2, [x19]
    80002150:	92405c63 	and	x3, x3, #0xffffff
    80002154:	aa1403e0 	mov	x0, x20
    80002158:	12002441 	and	w1, w2, #0x3ff
    8000215c:	531d2442 	ubfiz	w2, w2, #3, #10
    80002160:	f8224b03 	str	x3, [x24, w2, uxtw]
    80002164:	9400032b 	bl	80002e10 <gicd_set_isenabler>
    80002168:	91001273 	add	x19, x19, #0x4
    8000216c:	eb1302bf 	cmp	x21, x19
    80002170:	54000280 	b.eq	800021c0 <gicv3_secure_spis_config_props+0x100>  // b.none
    80002174:	79400261 	ldrh	w1, [x19]
    80002178:	aa1403e0 	mov	x0, x20
    8000217c:	12002421 	and	w1, w1, #0x3ff
    80002180:	71007c3f 	cmp	w1, #0x1f
    80002184:	54ffff29 	b.ls	80002168 <gicv3_secure_spis_config_props+0xa8>  // b.plast
    80002188:	94000318 	bl	80002de8 <gicd_clr_igroupr>
    8000218c:	39400a62 	ldrb	w2, [x19, #2]
    80002190:	79400260 	ldrh	w0, [x19]
    80002194:	721e045f 	tst	w2, #0xc
    80002198:	54fffb60 	b.eq	80002104 <gicv3_secure_spis_config_props+0x44>  // b.none
    8000219c:	d3452403 	ubfx	x3, x0, #5, #5
    800021a0:	12002401 	and	w1, w0, #0x3ff
    800021a4:	320002d6 	orr	w22, w22, #0x1
    800021a8:	1ac02320 	lsl	w0, w25, w0
    800021ac:	531e7463 	lsl	w3, w3, #2
    800021b0:	b8634ae4 	ldr	w4, [x23, w3, uxtw]
    800021b4:	0a200080 	bic	w0, w4, w0
    800021b8:	b8234ae0 	str	w0, [x23, w3, uxtw]
    800021bc:	17ffffda 	b	80002124 <gicv3_secure_spis_config_props+0x64>
    800021c0:	2a1603e0 	mov	w0, w22
    800021c4:	a94153f3 	ldp	x19, x20, [sp, #16]
    800021c8:	a9425bf5 	ldp	x21, x22, [sp, #32]
    800021cc:	a94363f7 	ldp	x23, x24, [sp, #48]
    800021d0:	f94023f9 	ldr	x25, [sp, #64]
    800021d4:	a8c57bfd 	ldp	x29, x30, [sp], #80
    800021d8:	d65f03c0 	ret
    800021dc:	52800016 	mov	w22, #0x0                   	// #0
    800021e0:	2a1603e0 	mov	w0, w22
    800021e4:	a9425bf5 	ldp	x21, x22, [sp, #32]
    800021e8:	a8c57bfd 	ldp	x29, x30, [sp], #80
    800021ec:	d65f03c0 	ret

00000000800021f0 <gicv3_ppi_sgi_config_defaults>:
    800021f0:	d2803001 	mov	x1, #0x180                 	// #384
    800021f4:	12800002 	mov	w2, #0xffffffff            	// #-1
    800021f8:	f2a00021 	movk	x1, #0x1, lsl #16
    800021fc:	b8216802 	str	w2, [x0, x1]
    80002200:	b9400001 	ldr	w1, [x0]
    80002204:	371fffe1 	tbnz	w1, #3, 80002200 <gicv3_ppi_sgi_config_defaults+0x10>
    80002208:	d2801004 	mov	x4, #0x80                  	// #128
    8000220c:	91404001 	add	x1, x0, #0x10, lsl #12
    80002210:	91404003 	add	x3, x0, #0x10, lsl #12
    80002214:	f2a00024 	movk	x4, #0x1, lsl #16
    80002218:	91100021 	add	x1, x1, #0x400
    8000221c:	91108063 	add	x3, x3, #0x420
    80002220:	12800005 	mov	w5, #0xffffffff            	// #-1
    80002224:	3201c3e2 	mov	w2, #0x80808080            	// #-2139062144
    80002228:	b8246805 	str	w5, [x0, x4]
    8000222c:	d503201f 	nop
    80002230:	b8004422 	str	w2, [x1], #4
    80002234:	eb01007f 	cmp	x3, x1
    80002238:	54ffffc1 	b.ne	80002230 <gicv3_ppi_sgi_config_defaults+0x40>  // b.any
    8000223c:	d2818081 	mov	x1, #0xc04                 	// #3076
    80002240:	f2a00021 	movk	x1, #0x1, lsl #16
    80002244:	b821681f 	str	wzr, [x0, x1]
    80002248:	d65f03c0 	ret
    8000224c:	00000000 	.inst	0x00000000 ; undefined

0000000080002250 <gicv3_secure_ppi_sgi_config_props>:
    80002250:	aa0003e4 	mov	x4, x0
    80002254:	34000802 	cbz	w2, 80002354 <gicv3_secure_ppi_sgi_config_props+0x104>
    80002258:	51000442 	sub	w2, w2, #0x1
    8000225c:	9140400d 	add	x13, x0, #0x10, lsl #12
    80002260:	91001026 	add	x6, x1, #0x4
    80002264:	d2801009 	mov	x9, #0x80                  	// #128
    80002268:	d281a008 	mov	x8, #0xd00                 	// #3328
    8000226c:	d280200c 	mov	x12, #0x100                 	// #256
    80002270:	d281808b 	mov	x11, #0xc04                 	// #3076
    80002274:	911001ad 	add	x13, x13, #0x400
    80002278:	8b2248c6 	add	x6, x6, w2, uxtw #2
    8000227c:	52800000 	mov	w0, #0x0                   	// #0
    80002280:	f2a00029 	movk	x9, #0x1, lsl #16
    80002284:	52800027 	mov	w7, #0x1                   	// #1
    80002288:	f2a00028 	movk	x8, #0x1, lsl #16
    8000228c:	f2a0002c 	movk	x12, #0x1, lsl #16
    80002290:	f2a0002b 	movk	x11, #0x1, lsl #16
    80002294:	5280006a 	mov	w10, #0x3                   	// #3
    80002298:	79400023 	ldrh	w3, [x1]
    8000229c:	12002462 	and	w2, w3, #0x3ff
    800022a0:	71007c5f 	cmp	w2, #0x1f
    800022a4:	d3402463 	ubfx	x3, x3, #0, #10
    800022a8:	1ac220e2 	lsl	w2, w7, w2
    800022ac:	54000428 	b.hi	80002330 <gicv3_secure_ppi_sgi_config_props+0xe0>  // b.pmore
    800022b0:	b8696885 	ldr	w5, [x4, x9]
    800022b4:	2a2203ee 	mvn	w14, w2
    800022b8:	3940082f 	ldrb	w15, [x1, #2]
    800022bc:	0a2200a5 	bic	w5, w5, w2
    800022c0:	b8296885 	str	w5, [x4, x9]
    800022c4:	721e05ff 	tst	w15, #0xc
    800022c8:	540003c1 	b.ne	80002340 <gicv3_secure_ppi_sgi_config_props+0xf0>  // b.any
    800022cc:	b8686885 	ldr	w5, [x4, x8]
    800022d0:	321e0000 	orr	w0, w0, #0x4
    800022d4:	2a050042 	orr	w2, w2, w5
    800022d8:	b8286882 	str	w2, [x4, x8]
    800022dc:	b9400022 	ldr	w2, [x1]
    800022e0:	92403c63 	and	x3, x3, #0xffff
    800022e4:	d34a4442 	ubfx	x2, x2, #10, #8
    800022e8:	382369a2 	strb	w2, [x13, x3]
    800022ec:	79400022 	ldrh	w2, [x1]
    800022f0:	12002442 	and	w2, w2, #0x3ff
    800022f4:	110fc045 	add	w5, w2, #0x3f0
    800022f8:	531f0c4f 	ubfiz	w15, w2, #1, #4
    800022fc:	120024a5 	and	w5, w5, #0x3ff
    80002300:	71003cbf 	cmp	w5, #0xf
    80002304:	1ac220e2 	lsl	w2, w7, w2
    80002308:	1acf214e 	lsl	w14, w10, w15
    8000230c:	54000108 	b.hi	8000232c <gicv3_secure_ppi_sgi_config_props+0xdc>  // b.pmore
    80002310:	39400823 	ldrb	w3, [x1, #2]
    80002314:	b86b6885 	ldr	w5, [x4, x11]
    80002318:	d3441463 	ubfx	x3, x3, #4, #2
    8000231c:	0a2e00ae 	bic	w14, w5, w14
    80002320:	1acf2063 	lsl	w3, w3, w15
    80002324:	2a0e0063 	orr	w3, w3, w14
    80002328:	b82b6883 	str	w3, [x4, x11]
    8000232c:	b82c6882 	str	w2, [x4, x12]
    80002330:	91001021 	add	x1, x1, #0x4
    80002334:	eb06003f 	cmp	x1, x6
    80002338:	54fffb01 	b.ne	80002298 <gicv3_secure_ppi_sgi_config_props+0x48>  // b.any
    8000233c:	d65f03c0 	ret
    80002340:	b8686882 	ldr	w2, [x4, x8]
    80002344:	32000000 	orr	w0, w0, #0x1
    80002348:	0a0201ce 	and	w14, w14, w2
    8000234c:	b828688e 	str	w14, [x4, x8]
    80002350:	17ffffe3 	b	800022dc <gicv3_secure_ppi_sgi_config_props+0x8c>
    80002354:	52800000 	mov	w0, #0x0                   	// #0
    80002358:	d65f03c0 	ret
    8000235c:	00000000 	.inst	0x00000000 ; undefined

0000000080002360 <arm_gicv3_distif_pre_save>:
    80002360:	90000061 	adrp	x1, 8000e000 <psci_ns_context+0xb20>
    80002364:	f9410421 	ldr	x1, [x1, #520]
    80002368:	f9401021 	ldr	x1, [x1, #32]
    8000236c:	f8605820 	ldr	x0, [x1, w0, uxtw #3]
    80002370:	91005001 	add	x1, x0, #0x14
    80002374:	b9401402 	ldr	w2, [x0, #20]
    80002378:	32000042 	orr	w2, w2, #0x1
    8000237c:	b9001402 	str	w2, [x0, #20]
    80002380:	b9400020 	ldr	w0, [x1]
    80002384:	36ffffe0 	tbz	w0, #31, 80002380 <arm_gicv3_distif_pre_save+0x20>
    80002388:	d65f03c0 	ret
    8000238c:	00000000 	.inst	0x00000000 ; undefined

0000000080002390 <arm_gicv3_distif_post_restore>:
    80002390:	90000061 	adrp	x1, 8000e000 <psci_ns_context+0xb20>
    80002394:	f9410421 	ldr	x1, [x1, #520]
    80002398:	f9401021 	ldr	x1, [x1, #32]
    8000239c:	f8605820 	ldr	x0, [x1, w0, uxtw #3]
    800023a0:	91005001 	add	x1, x0, #0x14
    800023a4:	b9401402 	ldr	w2, [x0, #20]
    800023a8:	360000c2 	tbz	w2, #0, 800023c0 <arm_gicv3_distif_post_restore+0x30>
    800023ac:	b9401402 	ldr	w2, [x0, #20]
    800023b0:	121f7842 	and	w2, w2, #0xfffffffe
    800023b4:	b9001402 	str	w2, [x0, #20]
    800023b8:	b9400020 	ldr	w0, [x1]
    800023bc:	37ffffe0 	tbnz	w0, #31, 800023b8 <arm_gicv3_distif_post_restore+0x28>
    800023c0:	d65f03c0 	ret
    800023c4:	00000000 	.inst	0x00000000 ; undefined

00000000800023c8 <gicv3_distif_pre_save>:
    800023c8:	17ffffe6 	b	80002360 <arm_gicv3_distif_pre_save>
    800023cc:	00000000 	.inst	0x00000000 ; undefined

00000000800023d0 <gicv3_distif_post_restore>:
    800023d0:	17fffff0 	b	80002390 <arm_gicv3_distif_post_restore>
    800023d4:	00000000 	.inst	0x00000000 ; undefined

00000000800023d8 <gicv3_driver_init>:
    800023d8:	a9be7bfd 	stp	x29, x30, [sp, #-32]!
    800023dc:	d29ffd05 	mov	x5, #0xffe8                	// #65512
    800023e0:	910003fd 	mov	x29, sp
    800023e4:	a9400804 	ldp	x4, x2, [x0]
    800023e8:	a90153f3 	stp	x19, x20, [sp, #16]
    800023ec:	b9401c01 	ldr	w1, [x0, #28]
    800023f0:	aa0003f3 	mov	x19, x0
    800023f4:	90000074 	adrp	x20, 8000e000 <psci_ns_context+0xb20>
    800023f8:	a9420c00 	ldp	x0, x3, [x0, #32]
    800023fc:	b8656885 	ldr	w5, [x4, x5]
    80002400:	b9400084 	ldr	w4, [x4]
    80002404:	97fffef3 	bl	80001fd0 <gicv3_rdistif_base_addrs_probe>
    80002408:	f9010693 	str	x19, [x20, #520]
    8000240c:	91082280 	add	x0, x20, #0x208
    80002410:	d2800101 	mov	x1, #0x8                   	// #8
    80002414:	94001164 	bl	800069a4 <flush_dcache_range>
    80002418:	f9410680 	ldr	x0, [x20, #520]
    8000241c:	d2800601 	mov	x1, #0x30                  	// #48
    80002420:	a94153f3 	ldp	x19, x20, [sp, #16]
    80002424:	a8c27bfd 	ldp	x29, x30, [sp], #32
    80002428:	1400115f 	b	800069a4 <flush_dcache_range>
    8000242c:	00000000 	.inst	0x00000000 ; undefined

0000000080002430 <gicv3_distif_init>:
    80002430:	a9be7bfd 	stp	x29, x30, [sp, #-32]!
    80002434:	910003fd 	mov	x29, sp
    80002438:	f9000bf3 	str	x19, [sp, #16]
    8000243c:	90000073 	adrp	x19, 8000e000 <psci_ns_context+0xb20>
    80002440:	f9410660 	ldr	x0, [x19, #520]
    80002444:	f9400000 	ldr	x0, [x0]
    80002448:	b9400001 	ldr	w1, [x0]
    8000244c:	121d7021 	and	w1, w1, #0xfffffff8
    80002450:	b9000001 	str	w1, [x0]
    80002454:	d503201f 	nop
    80002458:	b9400001 	ldr	w1, [x0]
    8000245c:	37ffffe1 	tbnz	w1, #31, 80002458 <gicv3_distif_init+0x28>
    80002460:	b9400001 	ldr	w1, [x0]
    80002464:	321c0421 	orr	w1, w1, #0x30
    80002468:	b9000001 	str	w1, [x0]
    8000246c:	d503201f 	nop
    80002470:	b9400001 	ldr	w1, [x0]
    80002474:	37ffffe1 	tbnz	w1, #31, 80002470 <gicv3_distif_init+0x40>
    80002478:	97fffeec 	bl	80002028 <gicv3_spis_config_defaults>
    8000247c:	f9410662 	ldr	x2, [x19, #520]
    80002480:	f9400040 	ldr	x0, [x2]
    80002484:	f9400841 	ldr	x1, [x2, #16]
    80002488:	b9401842 	ldr	w2, [x2, #24]
    8000248c:	97ffff0d 	bl	800020c0 <gicv3_secure_spis_config_props>
    80002490:	f9410661 	ldr	x1, [x19, #520]
    80002494:	f9400021 	ldr	x1, [x1]
    80002498:	b9400022 	ldr	w2, [x1]
    8000249c:	2a020000 	orr	w0, w0, w2
    800024a0:	b9000020 	str	w0, [x1]
    800024a4:	d503201f 	nop
    800024a8:	b9400020 	ldr	w0, [x1]
    800024ac:	37ffffe0 	tbnz	w0, #31, 800024a8 <gicv3_distif_init+0x78>
    800024b0:	f9400bf3 	ldr	x19, [sp, #16]
    800024b4:	a8c27bfd 	ldp	x29, x30, [sp], #32
    800024b8:	d65f03c0 	ret
    800024bc:	00000000 	.inst	0x00000000 ; undefined

00000000800024c0 <gicv3_rdistif_on>:
    800024c0:	d65f03c0 	ret
    800024c4:	00000000 	.inst	0x00000000 ; undefined

00000000800024c8 <gicv3_rdistif_init>:
    800024c8:	a9bd7bfd 	stp	x29, x30, [sp, #-48]!
    800024cc:	910003fd 	mov	x29, sp
    800024d0:	a90153f3 	stp	x19, x20, [sp, #16]
    800024d4:	90000073 	adrp	x19, 8000e000 <psci_ns_context+0xb20>
    800024d8:	2a0003f4 	mov	w20, w0
    800024dc:	f9410661 	ldr	x1, [x19, #520]
    800024e0:	f9400021 	ldr	x1, [x1]
    800024e4:	f90013f5 	str	x21, [sp, #32]
    800024e8:	b9400035 	ldr	w21, [x1]
    800024ec:	97fffff5 	bl	800024c0 <gicv3_rdistif_on>
    800024f0:	f9410660 	ldr	x0, [x19, #520]
    800024f4:	f9401000 	ldr	x0, [x0, #32]
    800024f8:	f8745814 	ldr	x20, [x0, w20, uxtw #3]
    800024fc:	aa1403e0 	mov	x0, x20
    80002500:	97ffff3c 	bl	800021f0 <gicv3_ppi_sgi_config_defaults>
    80002504:	f9410662 	ldr	x2, [x19, #520]
    80002508:	aa1403e0 	mov	x0, x20
    8000250c:	f9400841 	ldr	x1, [x2, #16]
    80002510:	b9401842 	ldr	w2, [x2, #24]
    80002514:	97ffff4f 	bl	80002250 <gicv3_secure_ppi_sgi_config_props>
    80002518:	6a35001f 	bics	wzr, w0, w21
    8000251c:	54000120 	b.eq	80002540 <gicv3_rdistif_init+0x78>  // b.none
    80002520:	f9410661 	ldr	x1, [x19, #520]
    80002524:	f9400021 	ldr	x1, [x1]
    80002528:	b9400022 	ldr	w2, [x1]
    8000252c:	2a020000 	orr	w0, w0, w2
    80002530:	b9000020 	str	w0, [x1]
    80002534:	d503201f 	nop
    80002538:	b9400020 	ldr	w0, [x1]
    8000253c:	37ffffe0 	tbnz	w0, #31, 80002538 <gicv3_rdistif_init+0x70>
    80002540:	a94153f3 	ldp	x19, x20, [sp, #16]
    80002544:	f94013f5 	ldr	x21, [sp, #32]
    80002548:	a8c37bfd 	ldp	x29, x30, [sp], #48
    8000254c:	d65f03c0 	ret

0000000080002550 <gicv3_cpuif_enable>:
    80002550:	a9bf7bfd 	stp	x29, x30, [sp, #-16]!
    80002554:	90000061 	adrp	x1, 8000e000 <psci_ns_context+0xb20>
    80002558:	910003fd 	mov	x29, sp
    8000255c:	f9410421 	ldr	x1, [x1, #520]
    80002560:	f9401021 	ldr	x1, [x1, #32]
    80002564:	f8605820 	ldr	x0, [x1, w0, uxtw #3]
    80002568:	97fffe82 	bl	80001f70 <gicv3_rdistif_mark_core_awake>
    8000256c:	d53ecca0 	mrs	x0, s3_6_c12_c12_5
    80002570:	b2400c00 	orr	x0, x0, #0xf
    80002574:	d51ecca0 	msr	s3_6_c12_c12_5, x0
    80002578:	d53e1100 	mrs	x0, scr_el3
    8000257c:	32000001 	orr	w1, w0, #0x1
    80002580:	d51e1101 	msr	scr_el3, x1
    80002584:	d5033fdf 	isb
    80002588:	d53cc9a1 	mrs	x1, s3_4_c12_c9_5
    8000258c:	b2400c21 	orr	x1, x1, #0xf
    80002590:	d51cc9a1 	msr	s3_4_c12_c9_5, x1
    80002594:	d2800021 	mov	x1, #0x1                   	// #1
    80002598:	d518cca1 	msr	s3_0_c12_c12_5, x1
    8000259c:	d5033fdf 	isb
    800025a0:	927f7800 	and	x0, x0, #0xfffffffe
    800025a4:	d51e1100 	msr	scr_el3, x0
    800025a8:	d5033fdf 	isb
    800025ac:	d2801fe0 	mov	x0, #0xff                  	// #255
    800025b0:	d5184600 	msr	s3_0_c4_c6_0, x0
    800025b4:	d518ccc1 	msr	s3_0_c12_c12_6, x1
    800025b8:	d53ecce0 	mrs	x0, s3_6_c12_c12_7
    800025bc:	b27f0000 	orr	x0, x0, #0x2
    800025c0:	d51ecce0 	msr	s3_6_c12_c12_7, x0
    800025c4:	d518cca1 	msr	s3_0_c12_c12_5, x1
    800025c8:	d5033fdf 	isb
    800025cc:	a8c17bfd 	ldp	x29, x30, [sp], #16
    800025d0:	d65f03c0 	ret
    800025d4:	00000000 	.inst	0x00000000 ; undefined

00000000800025d8 <gicv3_cpuif_disable>:
    800025d8:	d53ecca1 	mrs	x1, s3_6_c12_c12_5
    800025dc:	b27f0421 	orr	x1, x1, #0x6
    800025e0:	d51ecca1 	msr	s3_6_c12_c12_5, x1
    800025e4:	d538ccc1 	mrs	x1, s3_0_c12_c12_6
    800025e8:	927f7821 	and	x1, x1, #0xfffffffe
    800025ec:	d518ccc1 	msr	s3_0_c12_c12_6, x1
    800025f0:	d53ecce1 	mrs	x1, s3_6_c12_c12_7
    800025f4:	927e7421 	and	x1, x1, #0xfffffffc
    800025f8:	d51ecce1 	msr	s3_6_c12_c12_7, x1
    800025fc:	d5033fdf 	isb
    80002600:	90000061 	adrp	x1, 8000e000 <psci_ns_context+0xb20>
    80002604:	f9410421 	ldr	x1, [x1, #520]
    80002608:	f9401021 	ldr	x1, [x1, #32]
    8000260c:	f8605820 	ldr	x0, [x1, w0, uxtw #3]
    80002610:	17fffe68 	b	80001fb0 <gicv3_rdistif_mark_core_asleep>
    80002614:	00000000 	.inst	0x00000000 ; undefined

0000000080002618 <gicv3_get_pending_interrupt_type>:
    80002618:	d538c840 	mrs	x0, s3_0_c12_c8_2
    8000261c:	12005c00 	and	w0, w0, #0xffffff
    80002620:	d65f03c0 	ret
    80002624:	00000000 	.inst	0x00000000 ; undefined

0000000080002628 <gicv3_rdistif_save>:
    80002628:	a9bd7bfd 	stp	x29, x30, [sp, #-48]!
    8000262c:	90000062 	adrp	x2, 8000e000 <psci_ns_context+0xb20>
    80002630:	910003fd 	mov	x29, sp
    80002634:	a9025bf5 	stp	x21, x22, [sp, #32]
    80002638:	2a0003f6 	mov	w22, w0
    8000263c:	aa0103f5 	mov	x21, x1
    80002640:	f9410440 	ldr	x0, [x2, #520]
    80002644:	a90153f3 	stp	x19, x20, [sp, #16]
    80002648:	f9401000 	ldr	x0, [x0, #32]
    8000264c:	f8765814 	ldr	x20, [x0, w22, uxtw #3]
    80002650:	b9400282 	ldr	w2, [x20]
    80002654:	121d0053 	and	w19, w2, #0x8
    80002658:	371fffc2 	tbnz	w2, #3, 80002650 <gicv3_rdistif_save+0x28>
    8000265c:	b9400280 	ldr	w0, [x20]
    80002660:	d2801001 	mov	x1, #0x80                  	// #128
    80002664:	f9403a82 	ldr	x2, [x20, #112]
    80002668:	f2a00021 	movk	x1, #0x1, lsl #16
    8000266c:	f90002a2 	str	x2, [x21]
    80002670:	d2804005 	mov	x5, #0x200                 	// #512
    80002674:	b90012a0 	str	w0, [x21, #16]
    80002678:	d2802000 	mov	x0, #0x100                 	// #256
    8000267c:	f9403e86 	ldr	x6, [x20, #120]
    80002680:	f2a00020 	movk	x0, #0x1, lsl #16
    80002684:	b8616a81 	ldr	w1, [x20, x1]
    80002688:	f2a00025 	movk	x5, #0x1, lsl #16
    8000268c:	b90016a1 	str	w1, [x21, #20]
    80002690:	d2806004 	mov	x4, #0x300                 	// #768
    80002694:	f2a00024 	movk	x4, #0x1, lsl #16
    80002698:	d2818003 	mov	x3, #0xc00                 	// #3072
    8000269c:	b8606a87 	ldr	w7, [x20, x0]
    800026a0:	f2a00023 	movk	x3, #0x1, lsl #16
    800026a4:	b9001aa7 	str	w7, [x21, #24]
    800026a8:	d2818082 	mov	x2, #0xc04                 	// #3076
    800026ac:	f2a00022 	movk	x2, #0x1, lsl #16
    800026b0:	d281a001 	mov	x1, #0xd00                 	// #3328
    800026b4:	b8656a85 	ldr	w5, [x20, x5]
    800026b8:	f2a00021 	movk	x1, #0x1, lsl #16
    800026bc:	b9001ea5 	str	w5, [x21, #28]
    800026c0:	91340000 	add	x0, x0, #0xd00
    800026c4:	f90006a6 	str	x6, [x21, #8]
    800026c8:	b8646a84 	ldr	w4, [x20, x4]
    800026cc:	b90022a4 	str	w4, [x21, #32]
    800026d0:	b8636a83 	ldr	w3, [x20, x3]
    800026d4:	b90046a3 	str	w3, [x21, #68]
    800026d8:	b8626a82 	ldr	w2, [x20, x2]
    800026dc:	b9004aa2 	str	w2, [x21, #72]
    800026e0:	b8616a81 	ldr	w1, [x20, x1]
    800026e4:	b9004ea1 	str	w1, [x21, #76]
    800026e8:	b8606a80 	ldr	w0, [x20, x0]
    800026ec:	b90052a0 	str	w0, [x21, #80]
    800026f0:	2a1303e1 	mov	w1, w19
    800026f4:	aa1403e0 	mov	x0, x20
    800026f8:	97fffe12 	bl	80001f40 <gicr_read_ipriorityr>
    800026fc:	927e7662 	and	x2, x19, #0xfffffffc
    80002700:	11001273 	add	w19, w19, #0x4
    80002704:	8b0202a2 	add	x2, x21, x2
    80002708:	7100827f 	cmp	w19, #0x20
    8000270c:	b9002440 	str	w0, [x2, #36]
    80002710:	54ffff01 	b.ne	800026f0 <gicv3_rdistif_save+0xc8>  // b.any
    80002714:	2a1603e0 	mov	w0, w22
    80002718:	a94153f3 	ldp	x19, x20, [sp, #16]
    8000271c:	a9425bf5 	ldp	x21, x22, [sp, #32]
    80002720:	a8c37bfd 	ldp	x29, x30, [sp], #48
    80002724:	17ffff29 	b	800023c8 <gicv3_distif_pre_save>

0000000080002728 <gicv3_rdistif_init_restore>:
    80002728:	a9bd7bfd 	stp	x29, x30, [sp, #-48]!
    8000272c:	90000062 	adrp	x2, 8000e000 <psci_ns_context+0xb20>
    80002730:	910003fd 	mov	x29, sp
    80002734:	f9410442 	ldr	x2, [x2, #520]
    80002738:	f90013f5 	str	x21, [sp, #32]
    8000273c:	aa0103f5 	mov	x21, x1
    80002740:	a90153f3 	stp	x19, x20, [sp, #16]
    80002744:	2a0003f4 	mov	w20, w0
    80002748:	f9401041 	ldr	x1, [x2, #32]
    8000274c:	f8745833 	ldr	x19, [x1, w20, uxtw #3]
    80002750:	97ffff5c 	bl	800024c0 <gicv3_rdistif_on>
    80002754:	2a1403e0 	mov	w0, w20
    80002758:	97ffff1e 	bl	800023d0 <gicv3_distif_post_restore>
    8000275c:	d2803000 	mov	x0, #0x180                 	// #384
    80002760:	12800001 	mov	w1, #0xffffffff            	// #-1
    80002764:	f2a00020 	movk	x0, #0x1, lsl #16
    80002768:	b8206a61 	str	w1, [x19, x0]
    8000276c:	d503201f 	nop
    80002770:	b9400260 	ldr	w0, [x19]
    80002774:	121d0014 	and	w20, w0, #0x8
    80002778:	371fffc0 	tbnz	w0, #3, 80002770 <gicv3_rdistif_init_restore+0x48>
    8000277c:	b94012a0 	ldr	w0, [x21, #16]
    80002780:	d2801001 	mov	x1, #0x80                  	// #128
    80002784:	f94002a2 	ldr	x2, [x21]
    80002788:	121f7800 	and	w0, w0, #0xfffffffe
    8000278c:	b9000260 	str	w0, [x19]
    80002790:	f2a00021 	movk	x1, #0x1, lsl #16
    80002794:	f9003a62 	str	x2, [x19, #112]
    80002798:	b94016a0 	ldr	w0, [x21, #20]
    8000279c:	f94006a2 	ldr	x2, [x21, #8]
    800027a0:	f9003e62 	str	x2, [x19, #120]
    800027a4:	b8216a60 	str	w0, [x19, x1]
    800027a8:	927e7682 	and	x2, x20, #0xfffffffc
    800027ac:	2a1403e1 	mov	w1, w20
    800027b0:	8b0202a2 	add	x2, x21, x2
    800027b4:	11001294 	add	w20, w20, #0x4
    800027b8:	aa1303e0 	mov	x0, x19
    800027bc:	b9402442 	ldr	w2, [x2, #36]
    800027c0:	97fffde6 	bl	80001f58 <gicr_write_ipriorityr>
    800027c4:	7100829f 	cmp	w20, #0x20
    800027c8:	54ffff01 	b.ne	800027a8 <gicv3_rdistif_init_restore+0x80>  // b.any
    800027cc:	d2818000 	mov	x0, #0xc00                 	// #3072
    800027d0:	b94046a1 	ldr	w1, [x21, #68]
    800027d4:	f2a00020 	movk	x0, #0x1, lsl #16
    800027d8:	d2818084 	mov	x4, #0xc04                 	// #3076
    800027dc:	f2a00024 	movk	x4, #0x1, lsl #16
    800027e0:	d281a003 	mov	x3, #0xd00                 	// #3328
    800027e4:	b8206a61 	str	w1, [x19, x0]
    800027e8:	f2a00023 	movk	x3, #0x1, lsl #16
    800027ec:	d281c002 	mov	x2, #0xe00                 	// #3584
    800027f0:	d2804001 	mov	x1, #0x200                 	// #512
    800027f4:	b9404aa5 	ldr	w5, [x21, #72]
    800027f8:	f2a00022 	movk	x2, #0x1, lsl #16
    800027fc:	b8246a65 	str	w5, [x19, x4]
    80002800:	f2a00021 	movk	x1, #0x1, lsl #16
    80002804:	d2806000 	mov	x0, #0x300                 	// #768
    80002808:	b9404ea4 	ldr	w4, [x21, #76]
    8000280c:	f2a00020 	movk	x0, #0x1, lsl #16
    80002810:	b8236a64 	str	w4, [x19, x3]
    80002814:	b94052a3 	ldr	w3, [x21, #80]
    80002818:	b8226a63 	str	w3, [x19, x2]
    8000281c:	b9401ea2 	ldr	w2, [x21, #28]
    80002820:	b8216a62 	str	w2, [x19, x1]
    80002824:	b94022a1 	ldr	w1, [x21, #32]
    80002828:	b8206a61 	str	w1, [x19, x0]
    8000282c:	d503201f 	nop
    80002830:	b9400260 	ldr	w0, [x19]
    80002834:	37ffffe0 	tbnz	w0, #31, 80002830 <gicv3_rdistif_init_restore+0x108>
    80002838:	d2802000 	mov	x0, #0x100                 	// #256
    8000283c:	b9401aa1 	ldr	w1, [x21, #24]
    80002840:	f2a00020 	movk	x0, #0x1, lsl #16
    80002844:	b8206a61 	str	w1, [x19, x0]
    80002848:	b94012a0 	ldr	w0, [x21, #16]
    8000284c:	b9000260 	str	w0, [x19]
    80002850:	b9400260 	ldr	w0, [x19]
    80002854:	371fffe0 	tbnz	w0, #3, 80002850 <gicv3_rdistif_init_restore+0x128>
    80002858:	a94153f3 	ldp	x19, x20, [sp, #16]
    8000285c:	f94013f5 	ldr	x21, [sp, #32]
    80002860:	a8c37bfd 	ldp	x29, x30, [sp], #48
    80002864:	d65f03c0 	ret

0000000080002868 <gicv3_distif_save>:
    80002868:	a9bd7bfd 	stp	x29, x30, [sp, #-48]!
    8000286c:	90000061 	adrp	x1, 8000e000 <psci_ns_context+0xb20>
    80002870:	910003fd 	mov	x29, sp
    80002874:	a90153f3 	stp	x19, x20, [sp, #16]
    80002878:	aa0003f4 	mov	x20, x0
    8000287c:	f9410420 	ldr	x0, [x1, #520]
    80002880:	a9025bf5 	stp	x21, x22, [sp, #32]
    80002884:	f9400013 	ldr	x19, [x0]
    80002888:	b9400675 	ldr	w21, [x19, #4]
    8000288c:	531b12b5 	ubfiz	w21, w21, #5, #5
    80002890:	110082b5 	add	w21, w21, #0x20
    80002894:	d503201f 	nop
    80002898:	b9400260 	ldr	w0, [x19]
    8000289c:	37ffffe0 	tbnz	w0, #31, 80002898 <gicv3_distif_save+0x30>
    800028a0:	b9400260 	ldr	w0, [x19]
    800028a4:	710082bf 	cmp	w21, #0x20
    800028a8:	b91ee280 	str	w0, [x20, #7904]
    800028ac:	52800416 	mov	w22, #0x20                  	// #32
    800028b0:	54000d80 	b.eq	80002a60 <gicv3_distif_save+0x1f8>  // b.none
    800028b4:	d503201f 	nop
    800028b8:	2a1603e1 	mov	w1, w22
    800028bc:	aa1303e0 	mov	x0, x19
    800028c0:	940000fa 	bl	80002ca8 <gicd_read_igroupr>
    800028c4:	510082c2 	sub	w2, w22, #0x20
    800028c8:	110082d6 	add	w22, w22, #0x20
    800028cc:	6b1602bf 	cmp	w21, w22
    800028d0:	53057c42 	lsr	w2, w2, #5
    800028d4:	8b020a82 	add	x2, x20, x2, lsl #2
    800028d8:	b91ee440 	str	w0, [x2, #7908]
    800028dc:	54fffee8 	b.hi	800028b8 <gicv3_distif_save+0x50>  // b.pmore
    800028e0:	52800416 	mov	w22, #0x20                  	// #32
    800028e4:	d503201f 	nop
    800028e8:	2a1603e1 	mov	w1, w22
    800028ec:	aa1303e0 	mov	x0, x19
    800028f0:	940000f4 	bl	80002cc0 <gicd_read_isenabler>
    800028f4:	510082c2 	sub	w2, w22, #0x20
    800028f8:	110082d6 	add	w22, w22, #0x20
    800028fc:	6b1602bf 	cmp	w21, w22
    80002900:	53057c42 	lsr	w2, w2, #5
    80002904:	911f6042 	add	x2, x2, #0x7d8
    80002908:	b8227a80 	str	w0, [x20, x2, lsl #2]
    8000290c:	54fffee8 	b.hi	800028e8 <gicv3_distif_save+0x80>  // b.pmore
    80002910:	52800416 	mov	w22, #0x20                  	// #32
    80002914:	d503201f 	nop
    80002918:	2a1603e1 	mov	w1, w22
    8000291c:	aa1303e0 	mov	x0, x19
    80002920:	940000ee 	bl	80002cd8 <gicd_read_ispendr>
    80002924:	510082c2 	sub	w2, w22, #0x20
    80002928:	110082d6 	add	w22, w22, #0x20
    8000292c:	6b1602bf 	cmp	w21, w22
    80002930:	53057c42 	lsr	w2, w2, #5
    80002934:	8b020a82 	add	x2, x20, x2, lsl #2
    80002938:	b91fdc40 	str	w0, [x2, #8156]
    8000293c:	54fffee8 	b.hi	80002918 <gicv3_distif_save+0xb0>  // b.pmore
    80002940:	52800416 	mov	w22, #0x20                  	// #32
    80002944:	d503201f 	nop
    80002948:	2a1603e1 	mov	w1, w22
    8000294c:	aa1303e0 	mov	x0, x19
    80002950:	940000e8 	bl	80002cf0 <gicd_read_isactiver>
    80002954:	510082c2 	sub	w2, w22, #0x20
    80002958:	110082d6 	add	w22, w22, #0x20
    8000295c:	6b1602bf 	cmp	w21, w22
    80002960:	53057c42 	lsr	w2, w2, #5
    80002964:	8b020a82 	add	x2, x20, x2, lsl #2
    80002968:	b9205840 	str	w0, [x2, #8280]
    8000296c:	54fffee8 	b.hi	80002948 <gicv3_distif_save+0xe0>  // b.pmore
    80002970:	52800416 	mov	w22, #0x20                  	// #32
    80002974:	d503201f 	nop
    80002978:	2a1603e1 	mov	w1, w22
    8000297c:	aa1303e0 	mov	x0, x19
    80002980:	940000e2 	bl	80002d08 <gicd_read_ipriorityr>
    80002984:	510082c2 	sub	w2, w22, #0x20
    80002988:	110012d6 	add	w22, w22, #0x4
    8000298c:	927e7442 	and	x2, x2, #0xfffffffc
    80002990:	6b1602bf 	cmp	w21, w22
    80002994:	8b020282 	add	x2, x20, x2
    80002998:	b920d440 	str	w0, [x2, #8404]
    8000299c:	54fffee8 	b.hi	80002978 <gicv3_distif_save+0x110>  // b.pmore
    800029a0:	52800416 	mov	w22, #0x20                  	// #32
    800029a4:	d503201f 	nop
    800029a8:	2a1603e1 	mov	w1, w22
    800029ac:	aa1303e0 	mov	x0, x19
    800029b0:	940000da 	bl	80002d18 <gicd_read_icfgr>
    800029b4:	510082c2 	sub	w2, w22, #0x20
    800029b8:	110042d6 	add	w22, w22, #0x10
    800029bc:	6b1602bf 	cmp	w21, w22
    800029c0:	53047c42 	lsr	w2, w2, #4
    800029c4:	9124b042 	add	x2, x2, #0x92c
    800029c8:	b8227a80 	str	w0, [x20, x2, lsl #2]
    800029cc:	54fffee8 	b.hi	800029a8 <gicv3_distif_save+0x140>  // b.pmore
    800029d0:	52800416 	mov	w22, #0x20                  	// #32
    800029d4:	d503201f 	nop
    800029d8:	2a1603e1 	mov	w1, w22
    800029dc:	aa1303e0 	mov	x0, x19
    800029e0:	97fffd4c 	bl	80001f10 <gicd_read_igrpmodr>
    800029e4:	510082c2 	sub	w2, w22, #0x20
    800029e8:	110082d6 	add	w22, w22, #0x20
    800029ec:	6b1602bf 	cmp	w21, w22
    800029f0:	53057c42 	lsr	w2, w2, #5
    800029f4:	8b020a82 	add	x2, x20, x2, lsl #2
    800029f8:	b925a840 	str	w0, [x2, #9640]
    800029fc:	54fffee8 	b.hi	800029d8 <gicv3_distif_save+0x170>  // b.pmore
    80002a00:	52800416 	mov	w22, #0x20                  	// #32
    80002a04:	d503201f 	nop
    80002a08:	2a1603e1 	mov	w1, w22
    80002a0c:	aa1303e0 	mov	x0, x19
    80002a10:	940000c8 	bl	80002d30 <gicd_read_nsacr>
    80002a14:	510082c2 	sub	w2, w22, #0x20
    80002a18:	110042d6 	add	w22, w22, #0x10
    80002a1c:	6b1602bf 	cmp	w21, w22
    80002a20:	53047c42 	lsr	w2, w2, #4
    80002a24:	8b020a82 	add	x2, x20, x2, lsl #2
    80002a28:	b9262440 	str	w0, [x2, #9764]
    80002a2c:	54fffee8 	b.hi	80002a08 <gicv3_distif_save+0x1a0>  // b.pmore
    80002a30:	cb130294 	sub	x20, x20, x19
    80002a34:	d28c2000 	mov	x0, #0x6100                	// #24832
    80002a38:	928c1fe1 	mov	x1, #0xffffffffffff9f00    	// #-24832
    80002a3c:	8b010294 	add	x20, x20, x1
    80002a40:	8b000273 	add	x19, x19, x0
    80002a44:	52800400 	mov	w0, #0x20                  	// #32
    80002a48:	f9400261 	ldr	x1, [x19]
    80002a4c:	f8336a81 	str	x1, [x20, x19]
    80002a50:	11000400 	add	w0, w0, #0x1
    80002a54:	91002273 	add	x19, x19, #0x8
    80002a58:	6b0002bf 	cmp	w21, w0
    80002a5c:	54ffff68 	b.hi	80002a48 <gicv3_distif_save+0x1e0>  // b.pmore
    80002a60:	a94153f3 	ldp	x19, x20, [sp, #16]
    80002a64:	a9425bf5 	ldp	x21, x22, [sp, #32]
    80002a68:	a8c37bfd 	ldp	x29, x30, [sp], #48
    80002a6c:	d65f03c0 	ret

0000000080002a70 <gicv3_distif_init_restore>:
    80002a70:	a9bd7bfd 	stp	x29, x30, [sp, #-48]!
    80002a74:	90000061 	adrp	x1, 8000e000 <psci_ns_context+0xb20>
    80002a78:	910003fd 	mov	x29, sp
    80002a7c:	a90153f3 	stp	x19, x20, [sp, #16]
    80002a80:	aa0003f4 	mov	x20, x0
    80002a84:	f9410420 	ldr	x0, [x1, #520]
    80002a88:	a9025bf5 	stp	x21, x22, [sp, #32]
    80002a8c:	f9400013 	ldr	x19, [x0]
    80002a90:	b9400260 	ldr	w0, [x19]
    80002a94:	121d7000 	and	w0, w0, #0xfffffff8
    80002a98:	b9000260 	str	w0, [x19]
    80002a9c:	d503201f 	nop
    80002aa0:	b9400260 	ldr	w0, [x19]
    80002aa4:	37ffffe0 	tbnz	w0, #31, 80002aa0 <gicv3_distif_init_restore+0x30>
    80002aa8:	b9400260 	ldr	w0, [x19]
    80002aac:	321c0400 	orr	w0, w0, #0x30
    80002ab0:	b9000260 	str	w0, [x19]
    80002ab4:	d503201f 	nop
    80002ab8:	b9400260 	ldr	w0, [x19]
    80002abc:	37ffffe0 	tbnz	w0, #31, 80002ab8 <gicv3_distif_init_restore+0x48>
    80002ac0:	b9400660 	ldr	w0, [x19, #4]
    80002ac4:	52800416 	mov	w22, #0x20                  	// #32
    80002ac8:	531b1000 	ubfiz	w0, w0, #5, #5
    80002acc:	0b160015 	add	w21, w0, w22
    80002ad0:	34000dc0 	cbz	w0, 80002c88 <gicv3_distif_init_restore+0x218>
    80002ad4:	d503201f 	nop
    80002ad8:	510082c2 	sub	w2, w22, #0x20
    80002adc:	2a1603e1 	mov	w1, w22
    80002ae0:	aa1303e0 	mov	x0, x19
    80002ae4:	110082d6 	add	w22, w22, #0x20
    80002ae8:	53057c42 	lsr	w2, w2, #5
    80002aec:	8b020a82 	add	x2, x20, x2, lsl #2
    80002af0:	b95ee442 	ldr	w2, [x2, #7908]
    80002af4:	94000095 	bl	80002d48 <gicd_write_igroupr>
    80002af8:	6b1602bf 	cmp	w21, w22
    80002afc:	54fffee8 	b.hi	80002ad8 <gicv3_distif_init_restore+0x68>  // b.pmore
    80002b00:	52800416 	mov	w22, #0x20                  	// #32
    80002b04:	d503201f 	nop
    80002b08:	510082c2 	sub	w2, w22, #0x20
    80002b0c:	2a1603e1 	mov	w1, w22
    80002b10:	927e7442 	and	x2, x2, #0xfffffffc
    80002b14:	110012d6 	add	w22, w22, #0x4
    80002b18:	8b020282 	add	x2, x20, x2
    80002b1c:	aa1303e0 	mov	x0, x19
    80002b20:	b960d442 	ldr	w2, [x2, #8404]
    80002b24:	940000a1 	bl	80002da8 <gicd_write_ipriorityr>
    80002b28:	6b1602bf 	cmp	w21, w22
    80002b2c:	54fffee8 	b.hi	80002b08 <gicv3_distif_init_restore+0x98>  // b.pmore
    80002b30:	52800416 	mov	w22, #0x20                  	// #32
    80002b34:	d503201f 	nop
    80002b38:	510082c2 	sub	w2, w22, #0x20
    80002b3c:	2a1603e1 	mov	w1, w22
    80002b40:	aa1303e0 	mov	x0, x19
    80002b44:	110042d6 	add	w22, w22, #0x10
    80002b48:	53047c42 	lsr	w2, w2, #4
    80002b4c:	9124b042 	add	x2, x2, #0x92c
    80002b50:	b8627a82 	ldr	w2, [x20, x2, lsl #2]
    80002b54:	94000099 	bl	80002db8 <gicd_write_icfgr>
    80002b58:	6b1602bf 	cmp	w21, w22
    80002b5c:	54fffee8 	b.hi	80002b38 <gicv3_distif_init_restore+0xc8>  // b.pmore
    80002b60:	52800416 	mov	w22, #0x20                  	// #32
    80002b64:	d503201f 	nop
    80002b68:	510082c2 	sub	w2, w22, #0x20
    80002b6c:	2a1603e1 	mov	w1, w22
    80002b70:	aa1303e0 	mov	x0, x19
    80002b74:	110082d6 	add	w22, w22, #0x20
    80002b78:	53057c42 	lsr	w2, w2, #5
    80002b7c:	8b020a82 	add	x2, x20, x2, lsl #2
    80002b80:	b965a842 	ldr	w2, [x2, #9640]
    80002b84:	97fffce9 	bl	80001f28 <gicd_write_igrpmodr>
    80002b88:	6b1602bf 	cmp	w21, w22
    80002b8c:	54fffee8 	b.hi	80002b68 <gicv3_distif_init_restore+0xf8>  // b.pmore
    80002b90:	52800416 	mov	w22, #0x20                  	// #32
    80002b94:	d503201f 	nop
    80002b98:	510082c2 	sub	w2, w22, #0x20
    80002b9c:	2a1603e1 	mov	w1, w22
    80002ba0:	aa1303e0 	mov	x0, x19
    80002ba4:	110042d6 	add	w22, w22, #0x10
    80002ba8:	53047c42 	lsr	w2, w2, #4
    80002bac:	8b020a82 	add	x2, x20, x2, lsl #2
    80002bb0:	b9662442 	ldr	w2, [x2, #9764]
    80002bb4:	94000087 	bl	80002dd0 <gicd_write_nsacr>
    80002bb8:	6b1602bf 	cmp	w21, w22
    80002bbc:	54fffee8 	b.hi	80002b98 <gicv3_distif_init_restore+0x128>  // b.pmore
    80002bc0:	510086a1 	sub	w1, w21, #0x21
    80002bc4:	d28c2100 	mov	x0, #0x6108                	// #24840
    80002bc8:	cb130282 	sub	x2, x20, x19
    80002bcc:	8b000263 	add	x3, x19, x0
    80002bd0:	d28c2004 	mov	x4, #0x6100                	// #24832
    80002bd4:	928c1fe5 	mov	x5, #0xffffffffffff9f00    	// #-24832
    80002bd8:	8b040260 	add	x0, x19, x4
    80002bdc:	8b214c63 	add	x3, x3, w1, uxtw #3
    80002be0:	8b050042 	add	x2, x2, x5
    80002be4:	d503201f 	nop
    80002be8:	f8606841 	ldr	x1, [x2, x0]
    80002bec:	f8008401 	str	x1, [x0], #8
    80002bf0:	eb00007f 	cmp	x3, x0
    80002bf4:	54ffffa1 	b.ne	80002be8 <gicv3_distif_init_restore+0x178>  // b.any
    80002bf8:	52800416 	mov	w22, #0x20                  	// #32
    80002bfc:	d503201f 	nop
    80002c00:	510082c2 	sub	w2, w22, #0x20
    80002c04:	2a1603e1 	mov	w1, w22
    80002c08:	aa1303e0 	mov	x0, x19
    80002c0c:	110082d6 	add	w22, w22, #0x20
    80002c10:	53057c42 	lsr	w2, w2, #5
    80002c14:	911f6042 	add	x2, x2, #0x7d8
    80002c18:	b8627a82 	ldr	w2, [x20, x2, lsl #2]
    80002c1c:	94000051 	bl	80002d60 <gicd_write_isenabler>
    80002c20:	6b1602bf 	cmp	w21, w22
    80002c24:	54fffee8 	b.hi	80002c00 <gicv3_distif_init_restore+0x190>  // b.pmore
    80002c28:	52800416 	mov	w22, #0x20                  	// #32
    80002c2c:	d503201f 	nop
    80002c30:	510082c2 	sub	w2, w22, #0x20
    80002c34:	2a1603e1 	mov	w1, w22
    80002c38:	aa1303e0 	mov	x0, x19
    80002c3c:	110082d6 	add	w22, w22, #0x20
    80002c40:	53057c42 	lsr	w2, w2, #5
    80002c44:	8b020a82 	add	x2, x20, x2, lsl #2
    80002c48:	b95fdc42 	ldr	w2, [x2, #8156]
    80002c4c:	9400004b 	bl	80002d78 <gicd_write_ispendr>
    80002c50:	6b1602bf 	cmp	w21, w22
    80002c54:	54fffee8 	b.hi	80002c30 <gicv3_distif_init_restore+0x1c0>  // b.pmore
    80002c58:	52800416 	mov	w22, #0x20                  	// #32
    80002c5c:	d503201f 	nop
    80002c60:	510082c2 	sub	w2, w22, #0x20
    80002c64:	2a1603e1 	mov	w1, w22
    80002c68:	aa1303e0 	mov	x0, x19
    80002c6c:	110082d6 	add	w22, w22, #0x20
    80002c70:	53057c42 	lsr	w2, w2, #5
    80002c74:	8b020a82 	add	x2, x20, x2, lsl #2
    80002c78:	b9605842 	ldr	w2, [x2, #8280]
    80002c7c:	94000045 	bl	80002d90 <gicd_write_isactiver>
    80002c80:	6b1602bf 	cmp	w21, w22
    80002c84:	54fffee8 	b.hi	80002c60 <gicv3_distif_init_restore+0x1f0>  // b.pmore
    80002c88:	b95ee280 	ldr	w0, [x20, #7904]
    80002c8c:	b9000260 	str	w0, [x19]
    80002c90:	b9400260 	ldr	w0, [x19]
    80002c94:	37ffffe0 	tbnz	w0, #31, 80002c90 <gicv3_distif_init_restore+0x220>
    80002c98:	a94153f3 	ldp	x19, x20, [sp, #16]
    80002c9c:	a9425bf5 	ldp	x21, x22, [sp, #32]
    80002ca0:	a8c37bfd 	ldp	x29, x30, [sp], #48
    80002ca4:	d65f03c0 	ret

0000000080002ca8 <gicd_read_igroupr>:
    80002ca8:	53057c21 	lsr	w1, w1, #5
    80002cac:	91020000 	add	x0, x0, #0x80
    80002cb0:	531e7421 	lsl	w1, w1, #2
    80002cb4:	b8614800 	ldr	w0, [x0, w1, uxtw]
    80002cb8:	d65f03c0 	ret
    80002cbc:	00000000 	.inst	0x00000000 ; undefined

0000000080002cc0 <gicd_read_isenabler>:
    80002cc0:	53057c21 	lsr	w1, w1, #5
    80002cc4:	91040000 	add	x0, x0, #0x100
    80002cc8:	531e7421 	lsl	w1, w1, #2
    80002ccc:	b8614800 	ldr	w0, [x0, w1, uxtw]
    80002cd0:	d65f03c0 	ret
    80002cd4:	00000000 	.inst	0x00000000 ; undefined

0000000080002cd8 <gicd_read_ispendr>:
    80002cd8:	53057c21 	lsr	w1, w1, #5
    80002cdc:	91080000 	add	x0, x0, #0x200
    80002ce0:	531e7421 	lsl	w1, w1, #2
    80002ce4:	b8614800 	ldr	w0, [x0, w1, uxtw]
    80002ce8:	d65f03c0 	ret
    80002cec:	00000000 	.inst	0x00000000 ; undefined

0000000080002cf0 <gicd_read_isactiver>:
    80002cf0:	53057c21 	lsr	w1, w1, #5
    80002cf4:	910c0000 	add	x0, x0, #0x300
    80002cf8:	531e7421 	lsl	w1, w1, #2
    80002cfc:	b8614800 	ldr	w0, [x0, w1, uxtw]
    80002d00:	d65f03c0 	ret
    80002d04:	00000000 	.inst	0x00000000 ; undefined

0000000080002d08 <gicd_read_ipriorityr>:
    80002d08:	121e7421 	and	w1, w1, #0xfffffffc
    80002d0c:	91100000 	add	x0, x0, #0x400
    80002d10:	b8614800 	ldr	w0, [x0, w1, uxtw]
    80002d14:	d65f03c0 	ret

0000000080002d18 <gicd_read_icfgr>:
    80002d18:	53047c21 	lsr	w1, w1, #4
    80002d1c:	91300000 	add	x0, x0, #0xc00
    80002d20:	531e7421 	lsl	w1, w1, #2
    80002d24:	b8614800 	ldr	w0, [x0, w1, uxtw]
    80002d28:	d65f03c0 	ret
    80002d2c:	00000000 	.inst	0x00000000 ; undefined

0000000080002d30 <gicd_read_nsacr>:
    80002d30:	53047c21 	lsr	w1, w1, #4
    80002d34:	91380000 	add	x0, x0, #0xe00
    80002d38:	531e7421 	lsl	w1, w1, #2
    80002d3c:	b8614800 	ldr	w0, [x0, w1, uxtw]
    80002d40:	d65f03c0 	ret
    80002d44:	00000000 	.inst	0x00000000 ; undefined

0000000080002d48 <gicd_write_igroupr>:
    80002d48:	53057c21 	lsr	w1, w1, #5
    80002d4c:	91020000 	add	x0, x0, #0x80
    80002d50:	531e7421 	lsl	w1, w1, #2
    80002d54:	b8214802 	str	w2, [x0, w1, uxtw]
    80002d58:	d65f03c0 	ret
    80002d5c:	00000000 	.inst	0x00000000 ; undefined

0000000080002d60 <gicd_write_isenabler>:
    80002d60:	53057c21 	lsr	w1, w1, #5
    80002d64:	91040000 	add	x0, x0, #0x100
    80002d68:	531e7421 	lsl	w1, w1, #2
    80002d6c:	b8214802 	str	w2, [x0, w1, uxtw]
    80002d70:	d65f03c0 	ret
    80002d74:	00000000 	.inst	0x00000000 ; undefined

0000000080002d78 <gicd_write_ispendr>:
    80002d78:	53057c21 	lsr	w1, w1, #5
    80002d7c:	91080000 	add	x0, x0, #0x200
    80002d80:	531e7421 	lsl	w1, w1, #2
    80002d84:	b8214802 	str	w2, [x0, w1, uxtw]
    80002d88:	d65f03c0 	ret
    80002d8c:	00000000 	.inst	0x00000000 ; undefined

0000000080002d90 <gicd_write_isactiver>:
    80002d90:	53057c21 	lsr	w1, w1, #5
    80002d94:	910c0000 	add	x0, x0, #0x300
    80002d98:	531e7421 	lsl	w1, w1, #2
    80002d9c:	b8214802 	str	w2, [x0, w1, uxtw]
    80002da0:	d65f03c0 	ret
    80002da4:	00000000 	.inst	0x00000000 ; undefined

0000000080002da8 <gicd_write_ipriorityr>:
    80002da8:	91100000 	add	x0, x0, #0x400
    80002dac:	121e7421 	and	w1, w1, #0xfffffffc
    80002db0:	b8214802 	str	w2, [x0, w1, uxtw]
    80002db4:	d65f03c0 	ret

0000000080002db8 <gicd_write_icfgr>:
    80002db8:	53047c21 	lsr	w1, w1, #4
    80002dbc:	91300000 	add	x0, x0, #0xc00
    80002dc0:	531e7421 	lsl	w1, w1, #2
    80002dc4:	b8214802 	str	w2, [x0, w1, uxtw]
    80002dc8:	d65f03c0 	ret
    80002dcc:	00000000 	.inst	0x00000000 ; undefined

0000000080002dd0 <gicd_write_nsacr>:
    80002dd0:	53047c21 	lsr	w1, w1, #4
    80002dd4:	91380000 	add	x0, x0, #0xe00
    80002dd8:	531e7421 	lsl	w1, w1, #2
    80002ddc:	b8214802 	str	w2, [x0, w1, uxtw]
    80002de0:	d65f03c0 	ret
    80002de4:	00000000 	.inst	0x00000000 ; undefined

0000000080002de8 <gicd_clr_igroupr>:
    80002de8:	53057c23 	lsr	w3, w1, #5
    80002dec:	52800022 	mov	w2, #0x1                   	// #1
    80002df0:	91020000 	add	x0, x0, #0x80
    80002df4:	1ac12041 	lsl	w1, w2, w1
    80002df8:	531e7462 	lsl	w2, w3, #2
    80002dfc:	b8624803 	ldr	w3, [x0, w2, uxtw]
    80002e00:	0a210061 	bic	w1, w3, w1
    80002e04:	b8224801 	str	w1, [x0, w2, uxtw]
    80002e08:	d65f03c0 	ret
    80002e0c:	00000000 	.inst	0x00000000 ; undefined

0000000080002e10 <gicd_set_isenabler>:
    80002e10:	53057c22 	lsr	w2, w1, #5
    80002e14:	91040000 	add	x0, x0, #0x100
    80002e18:	52800023 	mov	w3, #0x1                   	// #1
    80002e1c:	531e7442 	lsl	w2, w2, #2
    80002e20:	1ac12061 	lsl	w1, w3, w1
    80002e24:	b8224801 	str	w1, [x0, w2, uxtw]
    80002e28:	d65f03c0 	ret
    80002e2c:	00000000 	.inst	0x00000000 ; undefined

0000000080002e30 <gicd_set_ipriorityr>:
    80002e30:	91100000 	add	x0, x0, #0x400
    80002e34:	12001c42 	and	w2, w2, #0xff
    80002e38:	38214802 	strb	w2, [x0, w1, uxtw]
    80002e3c:	d65f03c0 	ret

0000000080002e40 <gicd_set_icfgr>:
    80002e40:	53047c24 	lsr	w4, w1, #4
    80002e44:	91300000 	add	x0, x0, #0xc00
    80002e48:	531f0c21 	ubfiz	w1, w1, #1, #4
    80002e4c:	52800063 	mov	w3, #0x3                   	// #3
    80002e50:	531e7484 	lsl	w4, w4, #2
    80002e54:	0a030042 	and	w2, w2, w3
    80002e58:	1ac12063 	lsl	w3, w3, w1
    80002e5c:	1ac12042 	lsl	w2, w2, w1
    80002e60:	b8644801 	ldr	w1, [x0, w4, uxtw]
    80002e64:	0a230023 	bic	w3, w1, w3
    80002e68:	2a030042 	orr	w2, w2, w3
    80002e6c:	b8244802 	str	w2, [x0, w4, uxtw]
    80002e70:	d65f03c0 	ret
    80002e74:	00000000 	.inst	0x00000000 ; undefined

0000000080002e78 <plat_ic_get_pending_interrupt_type>:
    80002e78:	a9bf7bfd 	stp	x29, x30, [sp, #-16]!
    80002e7c:	910003fd 	mov	x29, sp
    80002e80:	97fffde6 	bl	80002618 <gicv3_get_pending_interrupt_type>
    80002e84:	510ff001 	sub	w1, w0, #0x3fc
    80002e88:	71000c3f 	cmp	w1, #0x3
    80002e8c:	52800020 	mov	w0, #0x1                   	// #1
    80002e90:	54000088 	b.hi	80002ea0 <plat_ic_get_pending_interrupt_type+0x28>  // b.pmore
    80002e94:	b0000020 	adrp	x0, 80007000 <vprintf+0x238>
    80002e98:	911c8000 	add	x0, x0, #0x720
    80002e9c:	b8615800 	ldr	w0, [x0, w1, uxtw #2]
    80002ea0:	a8c17bfd 	ldp	x29, x30, [sp], #16
    80002ea4:	d65f03c0 	ret

0000000080002ea8 <plat_get_target_pwr_state>:
    80002ea8:	51000442 	sub	w2, w2, #0x1
    80002eac:	52800040 	mov	w0, #0x2                   	// #2
    80002eb0:	91000442 	add	x2, x2, #0x1
    80002eb4:	8b020023 	add	x3, x1, x2
    80002eb8:	38401422 	ldrb	w2, [x1], #1
    80002ebc:	6b00005f 	cmp	w2, w0
    80002ec0:	1a803040 	csel	w0, w2, w0, cc  // cc = lo, ul, last
    80002ec4:	eb03003f 	cmp	x1, x3
    80002ec8:	12001c00 	and	w0, w0, #0xff
    80002ecc:	54ffff61 	b.ne	80002eb8 <plat_get_target_pwr_state+0x10>  // b.any
    80002ed0:	d65f03c0 	ret
    80002ed4:	00000000 	.inst	0x00000000 ; undefined

0000000080002ed8 <plat_imx_mpidr_to_core_pos>:
    80002ed8:	17fff8f8 	b	800012b8 <plat_core_pos_by_mpidr>
    80002edc:	00000000 	.inst	0x00000000 ; undefined

0000000080002ee0 <plat_gic_driver_init>:
    80002ee0:	b0000020 	adrp	x0, 80007000 <vprintf+0x238>
    80002ee4:	911cc000 	add	x0, x0, #0x730
    80002ee8:	17fffd3c 	b	800023d8 <gicv3_driver_init>
    80002eec:	00000000 	.inst	0x00000000 ; undefined

0000000080002ef0 <plat_gic_init>:
    80002ef0:	a9bf7bfd 	stp	x29, x30, [sp, #-16]!
    80002ef4:	910003fd 	mov	x29, sp
    80002ef8:	97fffd4e 	bl	80002430 <gicv3_distif_init>
    80002efc:	94000c76 	bl	800060d4 <plat_my_core_pos>
    80002f00:	97fffd72 	bl	800024c8 <gicv3_rdistif_init>
    80002f04:	94000c74 	bl	800060d4 <plat_my_core_pos>
    80002f08:	a8c17bfd 	ldp	x29, x30, [sp], #16
    80002f0c:	17fffd91 	b	80002550 <gicv3_cpuif_enable>

0000000080002f10 <plat_gic_cpuif_enable>:
    80002f10:	a9bf7bfd 	stp	x29, x30, [sp, #-16]!
    80002f14:	910003fd 	mov	x29, sp
    80002f18:	94000c6f 	bl	800060d4 <plat_my_core_pos>
    80002f1c:	a8c17bfd 	ldp	x29, x30, [sp], #16
    80002f20:	17fffd8c 	b	80002550 <gicv3_cpuif_enable>
    80002f24:	00000000 	.inst	0x00000000 ; undefined

0000000080002f28 <plat_gic_cpuif_disable>:
    80002f28:	a9bf7bfd 	stp	x29, x30, [sp, #-16]!
    80002f2c:	910003fd 	mov	x29, sp
    80002f30:	94000c69 	bl	800060d4 <plat_my_core_pos>
    80002f34:	a8c17bfd 	ldp	x29, x30, [sp], #16
    80002f38:	17fffda8 	b	800025d8 <gicv3_cpuif_disable>
    80002f3c:	00000000 	.inst	0x00000000 ; undefined

0000000080002f40 <plat_gic_pcpu_init>:
    80002f40:	a9bf7bfd 	stp	x29, x30, [sp, #-16]!
    80002f44:	910003fd 	mov	x29, sp
    80002f48:	94000c63 	bl	800060d4 <plat_my_core_pos>
    80002f4c:	a8c17bfd 	ldp	x29, x30, [sp], #16
    80002f50:	17fffd5e 	b	800024c8 <gicv3_rdistif_init>
    80002f54:	00000000 	.inst	0x00000000 ; undefined

0000000080002f58 <plat_gic_save>:
    80002f58:	a9bd7bfd 	stp	x29, x30, [sp, #-48]!
    80002f5c:	910003fd 	mov	x29, sp
    80002f60:	a90153f3 	stp	x19, x20, [sp, #16]
    80002f64:	aa0103f4 	mov	x20, x1
    80002f68:	52800013 	mov	w19, #0x0                   	// #0
    80002f6c:	f90013f5 	str	x21, [sp, #32]
    80002f70:	aa0103f5 	mov	x21, x1
    80002f74:	d503201f 	nop
    80002f78:	aa1403e1 	mov	x1, x20
    80002f7c:	2a1303e0 	mov	w0, w19
    80002f80:	11000673 	add	w19, w19, #0x1
    80002f84:	97fffda9 	bl	80002628 <gicv3_rdistif_save>
    80002f88:	91016294 	add	x20, x20, #0x58
    80002f8c:	71001a7f 	cmp	w19, #0x6
    80002f90:	54ffff41 	b.ne	80002f78 <plat_gic_save+0x20>  // b.any
    80002f94:	910842a0 	add	x0, x21, #0x210
    80002f98:	a94153f3 	ldp	x19, x20, [sp, #16]
    80002f9c:	f94013f5 	ldr	x21, [sp, #32]
    80002fa0:	a8c37bfd 	ldp	x29, x30, [sp], #48
    80002fa4:	17fffe31 	b	80002868 <gicv3_distif_save>

0000000080002fa8 <plat_gic_restore>:
    80002fa8:	a9be7bfd 	stp	x29, x30, [sp, #-32]!
    80002fac:	91084020 	add	x0, x1, #0x210
    80002fb0:	910003fd 	mov	x29, sp
    80002fb4:	a90153f3 	stp	x19, x20, [sp, #16]
    80002fb8:	aa0103f4 	mov	x20, x1
    80002fbc:	52800013 	mov	w19, #0x0                   	// #0
    80002fc0:	97fffeac 	bl	80002a70 <gicv3_distif_init_restore>
    80002fc4:	d503201f 	nop
    80002fc8:	aa1403e1 	mov	x1, x20
    80002fcc:	2a1303e0 	mov	w0, w19
    80002fd0:	11000673 	add	w19, w19, #0x1
    80002fd4:	97fffdd5 	bl	80002728 <gicv3_rdistif_init_restore>
    80002fd8:	91016294 	add	x20, x20, #0x58
    80002fdc:	71001a7f 	cmp	w19, #0x6
    80002fe0:	54ffff41 	b.ne	80002fc8 <plat_gic_restore+0x20>  // b.any
    80002fe4:	a94153f3 	ldp	x19, x20, [sp, #16]
    80002fe8:	a8c27bfd 	ldp	x29, x30, [sp], #32
    80002fec:	d65f03c0 	ret

0000000080002ff0 <sc_ipc_open>:
    80002ff0:	f100001f 	cmp	x0, #0x0
    80002ff4:	7a401824 	ccmp	w1, #0x0, #0x4, ne  // ne = any
    80002ff8:	540002e0 	b.eq	80003054 <sc_ipc_open+0x64>  // b.none
    80002ffc:	a9bd7bfd 	stp	x29, x30, [sp, #-48]!
    80003000:	910003fd 	mov	x29, sp
    80003004:	a90153f3 	stp	x19, x20, [sp, #16]
    80003008:	aa0103f4 	mov	x20, x1
    8000300c:	52800013 	mov	w19, #0x0                   	// #0
    80003010:	a9025bf5 	stp	x21, x22, [sp, #32]
    80003014:	aa0003f5 	mov	x21, x0
    80003018:	2a0103f6 	mov	w22, w1
    8000301c:	2a0103e0 	mov	w0, w1
    80003020:	940000b2 	bl	800032e8 <MU_Init>
    80003024:	2a1303e1 	mov	w1, w19
    80003028:	2a1603e0 	mov	w0, w22
    8000302c:	11000673 	add	w19, w19, #0x1
    80003030:	9400008e 	bl	80003268 <MU_EnableRxFullInt>
    80003034:	7100127f 	cmp	w19, #0x4
    80003038:	54ffff61 	b.ne	80003024 <sc_ipc_open+0x34>  // b.any
    8000303c:	f90002b4 	str	x20, [x21]
    80003040:	52800000 	mov	w0, #0x0                   	// #0
    80003044:	a94153f3 	ldp	x19, x20, [sp, #16]
    80003048:	a9425bf5 	ldp	x21, x22, [sp, #32]
    8000304c:	a8c37bfd 	ldp	x29, x30, [sp], #48
    80003050:	d65f03c0 	ret
    80003054:	52800120 	mov	w0, #0x9                   	// #9
    80003058:	d65f03c0 	ret
    8000305c:	00000000 	.inst	0x00000000 ; undefined

0000000080003060 <sc_ipc_read>:
    80003060:	7100001f 	cmp	w0, #0x0
    80003064:	fa401824 	ccmp	x1, #0x0, #0x4, ne  // ne = any
    80003068:	54000041 	b.ne	80003070 <sc_ipc_read+0x10>  // b.any
    8000306c:	d65f03c0 	ret
    80003070:	a9bd7bfd 	stp	x29, x30, [sp, #-48]!
    80003074:	aa0103e2 	mov	x2, x1
    80003078:	910003fd 	mov	x29, sp
    8000307c:	a90153f3 	stp	x19, x20, [sp, #16]
    80003080:	aa0103f4 	mov	x20, x1
    80003084:	52800001 	mov	w1, #0x0                   	// #0
    80003088:	f90013f5 	str	x21, [sp, #32]
    8000308c:	2a0003f5 	mov	w21, w0
    80003090:	9400008a 	bl	800032b8 <MU_ReceiveMsg>
    80003094:	39400680 	ldrb	w0, [x20, #1]
    80003098:	7100201f 	cmp	w0, #0x8
    8000309c:	54000288 	b.hi	800030ec <sc_ipc_read+0x8c>  // b.pmore
    800030a0:	7100041f 	cmp	w0, #0x1
    800030a4:	52800033 	mov	w19, #0x1                   	// #1
    800030a8:	540001a9 	b.ls	800030dc <sc_ipc_read+0x7c>  // b.plast
    800030ac:	d503201f 	nop
    800030b0:	51000662 	sub	w2, w19, #0x1
    800030b4:	12000661 	and	w1, w19, #0x3
    800030b8:	2a1503e0 	mov	w0, w21
    800030bc:	8b22ca82 	add	x2, x20, w2, sxtw #2
    800030c0:	91001042 	add	x2, x2, #0x4
    800030c4:	9400007d 	bl	800032b8 <MU_ReceiveMsg>
    800030c8:	39400681 	ldrb	w1, [x20, #1]
    800030cc:	11000660 	add	w0, w19, #0x1
    800030d0:	12001c13 	and	w19, w0, #0xff
    800030d4:	6b20003f 	cmp	w1, w0, uxtb
    800030d8:	54fffec8 	b.hi	800030b0 <sc_ipc_read+0x50>  // b.pmore
    800030dc:	a94153f3 	ldp	x19, x20, [sp, #16]
    800030e0:	f94013f5 	ldr	x21, [sp, #32]
    800030e4:	a8c37bfd 	ldp	x29, x30, [sp], #48
    800030e8:	d65f03c0 	ret
    800030ec:	b900029f 	str	wzr, [x20]
    800030f0:	a94153f3 	ldp	x19, x20, [sp, #16]
    800030f4:	f94013f5 	ldr	x21, [sp, #32]
    800030f8:	a8c37bfd 	ldp	x29, x30, [sp], #48
    800030fc:	d65f03c0 	ret

0000000080003100 <sc_ipc_write>:
    80003100:	7100001f 	cmp	w0, #0x0
    80003104:	fa401824 	ccmp	x1, #0x0, #0x4, ne  // ne = any
    80003108:	54000460 	b.eq	80003194 <sc_ipc_write+0x94>  // b.none
    8000310c:	a9bd7bfd 	stp	x29, x30, [sp, #-48]!
    80003110:	910003fd 	mov	x29, sp
    80003114:	a90153f3 	stp	x19, x20, [sp, #16]
    80003118:	aa0103f4 	mov	x20, x1
    8000311c:	39400421 	ldrb	w1, [x1, #1]
    80003120:	7100203f 	cmp	w1, #0x8
    80003124:	54000089 	b.ls	80003134 <sc_ipc_write+0x34>  // b.plast
    80003128:	a94153f3 	ldp	x19, x20, [sp, #16]
    8000312c:	a8c37bfd 	ldp	x29, x30, [sp], #48
    80003130:	d65f03c0 	ret
    80003134:	b9400282 	ldr	w2, [x20]
    80003138:	52800001 	mov	w1, #0x0                   	// #0
    8000313c:	f90013f5 	str	x21, [sp, #32]
    80003140:	2a0003f5 	mov	w21, w0
    80003144:	94000053 	bl	80003290 <MU_SendMessage>
    80003148:	39400680 	ldrb	w0, [x20, #1]
    8000314c:	7100041f 	cmp	w0, #0x1
    80003150:	540001a9 	b.ls	80003184 <sc_ipc_write+0x84>  // b.plast
    80003154:	52800033 	mov	w19, #0x1                   	// #1
    80003158:	51000662 	sub	w2, w19, #0x1
    8000315c:	12000661 	and	w1, w19, #0x3
    80003160:	2a1503e0 	mov	w0, w21
    80003164:	8b22ca82 	add	x2, x20, w2, sxtw #2
    80003168:	b9400442 	ldr	w2, [x2, #4]
    8000316c:	94000049 	bl	80003290 <MU_SendMessage>
    80003170:	39400681 	ldrb	w1, [x20, #1]
    80003174:	11000660 	add	w0, w19, #0x1
    80003178:	12001c13 	and	w19, w0, #0xff
    8000317c:	6b20003f 	cmp	w1, w0, uxtb
    80003180:	54fffec8 	b.hi	80003158 <sc_ipc_write+0x58>  // b.pmore
    80003184:	a94153f3 	ldp	x19, x20, [sp, #16]
    80003188:	f94013f5 	ldr	x21, [sp, #32]
    8000318c:	a8c37bfd 	ldp	x29, x30, [sp], #48
    80003190:	d65f03c0 	ret
    80003194:	d65f03c0 	ret

0000000080003198 <sc_call_rpc>:
    80003198:	a9bd7bfd 	stp	x29, x30, [sp, #-48]!
    8000319c:	910003fd 	mov	x29, sp
    800031a0:	a90153f3 	stp	x19, x20, [sp, #16]
    800031a4:	900000b3 	adrp	x19, 80017000 <sc_ipc_bakery_lock>
    800031a8:	91000273 	add	x19, x19, #0x0
    800031ac:	aa0003f4 	mov	x20, x0
    800031b0:	aa1303e0 	mov	x0, x19
    800031b4:	a9025bf5 	stp	x21, x22, [sp, #32]
    800031b8:	aa0103f5 	mov	x21, x1
    800031bc:	12001c56 	and	w22, w2, #0xff
    800031c0:	94000aea 	bl	80005d68 <bakery_lock_get>
    800031c4:	aa1503e1 	mov	x1, x21
    800031c8:	aa1403e0 	mov	x0, x20
    800031cc:	97ffffcd 	bl	80003100 <sc_ipc_write>
    800031d0:	340000d6 	cbz	w22, 800031e8 <sc_call_rpc+0x50>
    800031d4:	aa1303e0 	mov	x0, x19
    800031d8:	a94153f3 	ldp	x19, x20, [sp, #16]
    800031dc:	a9425bf5 	ldp	x21, x22, [sp, #32]
    800031e0:	a8c37bfd 	ldp	x29, x30, [sp], #48
    800031e4:	14000b19 	b	80005e48 <bakery_lock_release>
    800031e8:	aa1503e1 	mov	x1, x21
    800031ec:	aa1403e0 	mov	x0, x20
    800031f0:	97ffff9c 	bl	80003060 <sc_ipc_read>
    800031f4:	aa1303e0 	mov	x0, x19
    800031f8:	a94153f3 	ldp	x19, x20, [sp, #16]
    800031fc:	a9425bf5 	ldp	x21, x22, [sp, #32]
    80003200:	a8c37bfd 	ldp	x29, x30, [sp], #48
    80003204:	14000b11 	b	80005e48 <bakery_lock_release>

0000000080003208 <MU_Resume>:
    80003208:	11009000 	add	w0, w0, #0x24
    8000320c:	529ffee3 	mov	w3, #0xfff7                	// #65527
    80003210:	72bffe03 	movk	w3, #0xfff0, lsl #16
    80003214:	b9400001 	ldr	w1, [x0]
    80003218:	121d3021 	and	w1, w1, #0xfff8
    8000321c:	b9000001 	str	w1, [x0]
    80003220:	b9400002 	ldr	w2, [x0]
    80003224:	0a030042 	and	w2, w2, w3
    80003228:	32050042 	orr	w2, w2, #0x8000000
    8000322c:	b9000002 	str	w2, [x0]
    80003230:	b9400002 	ldr	w2, [x0]
    80003234:	0a030042 	and	w2, w2, w3
    80003238:	32060042 	orr	w2, w2, #0x4000000
    8000323c:	b9000002 	str	w2, [x0]
    80003240:	b9400002 	ldr	w2, [x0]
    80003244:	0a030042 	and	w2, w2, w3
    80003248:	32070042 	orr	w2, w2, #0x2000000
    8000324c:	b9000002 	str	w2, [x0]
    80003250:	b9400001 	ldr	w1, [x0]
    80003254:	0a030021 	and	w1, w1, w3
    80003258:	32080021 	orr	w1, w1, #0x1000000
    8000325c:	b9000001 	str	w1, [x0]
    80003260:	d65f03c0 	ret
    80003264:	00000000 	.inst	0x00000000 ; undefined

0000000080003268 <MU_EnableRxFullInt>:
    80003268:	11009000 	add	w0, w0, #0x24
    8000326c:	52a10002 	mov	w2, #0x8000000             	// #134217728
    80003270:	1ac12842 	asr	w2, w2, w1
    80003274:	529ffee3 	mov	w3, #0xfff7                	// #65527
    80003278:	72bffe03 	movk	w3, #0xfff0, lsl #16
    8000327c:	b9400001 	ldr	w1, [x0]
    80003280:	0a030021 	and	w1, w1, w3
    80003284:	2a010042 	orr	w2, w2, w1
    80003288:	b9000002 	str	w2, [x0]
    8000328c:	d65f03c0 	ret

0000000080003290 <MU_SendMessage>:
    80003290:	52a01004 	mov	w4, #0x800000              	// #8388608
    80003294:	11008005 	add	w5, w0, #0x20
    80003298:	1ac12884 	asr	w4, w4, w1
    8000329c:	d503201f 	nop
    800032a0:	b94000a3 	ldr	w3, [x5]
    800032a4:	6a03009f 	tst	w4, w3
    800032a8:	54ffffc0 	b.eq	800032a0 <MU_SendMessage+0x10>  // b.none
    800032ac:	0b010801 	add	w1, w0, w1, lsl #2
    800032b0:	b9000022 	str	w2, [x1]
    800032b4:	d65f03c0 	ret

00000000800032b8 <MU_ReceiveMsg>:
    800032b8:	52a10004 	mov	w4, #0x8000000             	// #134217728
    800032bc:	11008005 	add	w5, w0, #0x20
    800032c0:	1ac12884 	asr	w4, w4, w1
    800032c4:	d503201f 	nop
    800032c8:	b94000a3 	ldr	w3, [x5]
    800032cc:	6a03009f 	tst	w4, w3
    800032d0:	54ffffc0 	b.eq	800032c8 <MU_ReceiveMsg+0x10>  // b.none
    800032d4:	11004000 	add	w0, w0, #0x10
    800032d8:	0b010801 	add	w1, w0, w1, lsl #2
    800032dc:	b9400020 	ldr	w0, [x1]
    800032e0:	b9000040 	str	w0, [x2]
    800032e4:	d65f03c0 	ret

00000000800032e8 <MU_Init>:
    800032e8:	11009000 	add	w0, w0, #0x24
    800032ec:	b9400001 	ldr	w1, [x0]
    800032f0:	121d3021 	and	w1, w1, #0xfff8
    800032f4:	b9000001 	str	w1, [x0]
    800032f8:	d65f03c0 	ret
    800032fc:	00000000 	.inst	0x00000000 ; undefined

0000000080003300 <sc_pm_set_sys_power_mode>:
    80003300:	a9bd7bfd 	stp	x29, x30, [sp, #-48]!
    80003304:	52804023 	mov	w3, #0x201                 	// #513
    80003308:	72a26043 	movk	w3, #0x1302, lsl #16
    8000330c:	910003fd 	mov	x29, sp
    80003310:	52800002 	mov	w2, #0x0                   	// #0
    80003314:	b90013e3 	str	w3, [sp, #16]
    80003318:	390053e1 	strb	w1, [sp, #20]
    8000331c:	910043e1 	add	x1, sp, #0x10
    80003320:	97ffff9e 	bl	80003198 <sc_call_rpc>
    80003324:	39404fe0 	ldrb	w0, [sp, #19]
    80003328:	a8c37bfd 	ldp	x29, x30, [sp], #48
    8000332c:	d65f03c0 	ret

0000000080003330 <sc_pm_set_resource_power_mode>:
    80003330:	a9bd7bfd 	stp	x29, x30, [sp, #-48]!
    80003334:	52804023 	mov	w3, #0x201                 	// #513
    80003338:	72a06043 	movk	w3, #0x302, lsl #16
    8000333c:	910003fd 	mov	x29, sp
    80003340:	b90013e3 	str	w3, [sp, #16]
    80003344:	79002be1 	strh	w1, [sp, #20]
    80003348:	910043e1 	add	x1, sp, #0x10
    8000334c:	39005be2 	strb	w2, [sp, #22]
    80003350:	52800002 	mov	w2, #0x0                   	// #0
    80003354:	97ffff91 	bl	80003198 <sc_call_rpc>
    80003358:	39404fe0 	ldrb	w0, [sp, #19]
    8000335c:	a8c37bfd 	ldp	x29, x30, [sp], #48
    80003360:	d65f03c0 	ret
    80003364:	00000000 	.inst	0x00000000 ; undefined

0000000080003368 <sc_pm_req_low_power_mode>:
    80003368:	a9bd7bfd 	stp	x29, x30, [sp, #-48]!
    8000336c:	52804023 	mov	w3, #0x201                 	// #513
    80003370:	72a20043 	movk	w3, #0x1002, lsl #16
    80003374:	910003fd 	mov	x29, sp
    80003378:	b90013e3 	str	w3, [sp, #16]
    8000337c:	79002be1 	strh	w1, [sp, #20]
    80003380:	910043e1 	add	x1, sp, #0x10
    80003384:	39005be2 	strb	w2, [sp, #22]
    80003388:	52800002 	mov	w2, #0x0                   	// #0
    8000338c:	97ffff83 	bl	80003198 <sc_call_rpc>
    80003390:	39404fe0 	ldrb	w0, [sp, #19]
    80003394:	a8c37bfd 	ldp	x29, x30, [sp], #48
    80003398:	d65f03c0 	ret
    8000339c:	00000000 	.inst	0x00000000 ; undefined

00000000800033a0 <sc_pm_req_cpu_low_power_mode>:
    800033a0:	a9bd7bfd 	stp	x29, x30, [sp, #-48]!
    800033a4:	52804024 	mov	w4, #0x201                 	// #513
    800033a8:	72a28044 	movk	w4, #0x1402, lsl #16
    800033ac:	910003fd 	mov	x29, sp
    800033b0:	b90013e4 	str	w4, [sp, #16]
    800033b4:	79002be1 	strh	w1, [sp, #20]
    800033b8:	910043e1 	add	x1, sp, #0x10
    800033bc:	39005be2 	strb	w2, [sp, #22]
    800033c0:	52800002 	mov	w2, #0x0                   	// #0
    800033c4:	39005fe3 	strb	w3, [sp, #23]
    800033c8:	97ffff74 	bl	80003198 <sc_call_rpc>
    800033cc:	39404fe0 	ldrb	w0, [sp, #19]
    800033d0:	a8c37bfd 	ldp	x29, x30, [sp], #48
    800033d4:	d65f03c0 	ret

00000000800033d8 <sc_pm_set_cpu_resume>:
    800033d8:	72001c5f 	tst	w2, #0xff
    800033dc:	a9bd7bfd 	stp	x29, x30, [sp, #-48]!
    800033e0:	1a9f07e4 	cset	w4, ne  // ne = any
    800033e4:	d360fc65 	lsr	x5, x3, #32
    800033e8:	52808026 	mov	w6, #0x401                 	// #1025
    800033ec:	72a2a046 	movk	w6, #0x1502, lsl #16
    800033f0:	910003fd 	mov	x29, sp
    800033f4:	52800002 	mov	w2, #0x0                   	// #0
    800033f8:	290217e6 	stp	w6, w5, [sp, #16]
    800033fc:	b9001be3 	str	w3, [sp, #24]
    80003400:	79003be1 	strh	w1, [sp, #28]
    80003404:	910043e1 	add	x1, sp, #0x10
    80003408:	39007be4 	strb	w4, [sp, #30]
    8000340c:	97ffff63 	bl	80003198 <sc_call_rpc>
    80003410:	39404fe0 	ldrb	w0, [sp, #19]
    80003414:	a8c37bfd 	ldp	x29, x30, [sp], #48
    80003418:	d65f03c0 	ret
    8000341c:	00000000 	.inst	0x00000000 ; undefined

0000000080003420 <sc_pm_req_sys_if_power_mode>:
    80003420:	a9bd7bfd 	stp	x29, x30, [sp, #-48]!
    80003424:	52806025 	mov	w5, #0x301                 	// #769
    80003428:	72a24045 	movk	w5, #0x1202, lsl #16
    8000342c:	910003fd 	mov	x29, sp
    80003430:	b90013e5 	str	w5, [sp, #16]
    80003434:	79002be1 	strh	w1, [sp, #20]
    80003438:	910043e1 	add	x1, sp, #0x10
    8000343c:	39005be2 	strb	w2, [sp, #22]
    80003440:	52800002 	mov	w2, #0x0                   	// #0
    80003444:	39005fe3 	strb	w3, [sp, #23]
    80003448:	390063e4 	strb	w4, [sp, #24]
    8000344c:	97ffff53 	bl	80003198 <sc_call_rpc>
    80003450:	39404fe0 	ldrb	w0, [sp, #19]
    80003454:	a8c37bfd 	ldp	x29, x30, [sp], #48
    80003458:	d65f03c0 	ret
    8000345c:	00000000 	.inst	0x00000000 ; undefined

0000000080003460 <sc_pm_set_clock_rate>:
    80003460:	a9bc7bfd 	stp	x29, x30, [sp, #-64]!
    80003464:	52806024 	mov	w4, #0x301                 	// #769
    80003468:	72a0a044 	movk	w4, #0x502, lsl #16
    8000346c:	910003fd 	mov	x29, sp
    80003470:	f9000bf3 	str	x19, [sp, #16]
    80003474:	aa0303f3 	mov	x19, x3
    80003478:	b9400063 	ldr	w3, [x3]
    8000347c:	b90023e4 	str	w4, [sp, #32]
    80003480:	b90027e3 	str	w3, [sp, #36]
    80003484:	790053e1 	strh	w1, [sp, #40]
    80003488:	910083e1 	add	x1, sp, #0x20
    8000348c:	3900abe2 	strb	w2, [sp, #42]
    80003490:	52800002 	mov	w2, #0x0                   	// #0
    80003494:	97ffff41 	bl	80003198 <sc_call_rpc>
    80003498:	b94027e0 	ldr	w0, [sp, #36]
    8000349c:	b9000260 	str	w0, [x19]
    800034a0:	39408fe0 	ldrb	w0, [sp, #35]
    800034a4:	f9400bf3 	ldr	x19, [sp, #16]
    800034a8:	a8c47bfd 	ldp	x29, x30, [sp], #64
    800034ac:	d65f03c0 	ret

00000000800034b0 <sc_pm_clock_enable>:
    800034b0:	72001c7f 	tst	w3, #0xff
    800034b4:	a9bd7bfd 	stp	x29, x30, [sp, #-48]!
    800034b8:	1a9f07e5 	cset	w5, ne  // ne = any
    800034bc:	72001c9f 	tst	w4, #0xff
    800034c0:	52806026 	mov	w6, #0x301                 	// #769
    800034c4:	1a9f07e3 	cset	w3, ne  // ne = any
    800034c8:	72a0e046 	movk	w6, #0x702, lsl #16
    800034cc:	910003fd 	mov	x29, sp
    800034d0:	b90013e6 	str	w6, [sp, #16]
    800034d4:	79002be1 	strh	w1, [sp, #20]
    800034d8:	910043e1 	add	x1, sp, #0x10
    800034dc:	39005be2 	strb	w2, [sp, #22]
    800034e0:	52800002 	mov	w2, #0x0                   	// #0
    800034e4:	39005fe5 	strb	w5, [sp, #23]
    800034e8:	390063e3 	strb	w3, [sp, #24]
    800034ec:	97ffff2b 	bl	80003198 <sc_call_rpc>
    800034f0:	39404fe0 	ldrb	w0, [sp, #19]
    800034f4:	a8c37bfd 	ldp	x29, x30, [sp], #48
    800034f8:	d65f03c0 	ret
    800034fc:	00000000 	.inst	0x00000000 ; undefined

0000000080003500 <sc_pm_reset>:
    80003500:	a9bd7bfd 	stp	x29, x30, [sp, #-48]!
    80003504:	52804023 	mov	w3, #0x201                 	// #513
    80003508:	72a1a043 	movk	w3, #0xd02, lsl #16
    8000350c:	910003fd 	mov	x29, sp
    80003510:	52800002 	mov	w2, #0x0                   	// #0
    80003514:	b90013e3 	str	w3, [sp, #16]
    80003518:	390053e1 	strb	w1, [sp, #20]
    8000351c:	910043e1 	add	x1, sp, #0x10
    80003520:	97ffff1e 	bl	80003198 <sc_call_rpc>
    80003524:	39404fe0 	ldrb	w0, [sp, #19]
    80003528:	a8c37bfd 	ldp	x29, x30, [sp], #48
    8000352c:	d65f03c0 	ret

0000000080003530 <sc_pm_reboot>:
    80003530:	a9bd7bfd 	stp	x29, x30, [sp, #-48]!
    80003534:	52804023 	mov	w3, #0x201                 	// #513
    80003538:	72a12043 	movk	w3, #0x902, lsl #16
    8000353c:	910003fd 	mov	x29, sp
    80003540:	52800022 	mov	w2, #0x1                   	// #1
    80003544:	b90013e3 	str	w3, [sp, #16]
    80003548:	390053e1 	strb	w1, [sp, #20]
    8000354c:	910043e1 	add	x1, sp, #0x10
    80003550:	97ffff12 	bl	80003198 <sc_call_rpc>
    80003554:	a8c37bfd 	ldp	x29, x30, [sp], #48
    80003558:	d65f03c0 	ret
    8000355c:	00000000 	.inst	0x00000000 ; undefined

0000000080003560 <sc_pm_cpu_start>:
    80003560:	72001c5f 	tst	w2, #0xff
    80003564:	a9bd7bfd 	stp	x29, x30, [sp, #-48]!
    80003568:	1a9f07e4 	cset	w4, ne  // ne = any
    8000356c:	d360fc65 	lsr	x5, x3, #32
    80003570:	52808026 	mov	w6, #0x401                 	// #1025
    80003574:	72a16046 	movk	w6, #0xb02, lsl #16
    80003578:	910003fd 	mov	x29, sp
    8000357c:	52800002 	mov	w2, #0x0                   	// #0
    80003580:	290217e6 	stp	w6, w5, [sp, #16]
    80003584:	b9001be3 	str	w3, [sp, #24]
    80003588:	79003be1 	strh	w1, [sp, #28]
    8000358c:	910043e1 	add	x1, sp, #0x10
    80003590:	39007be4 	strb	w4, [sp, #30]
    80003594:	97ffff01 	bl	80003198 <sc_call_rpc>
    80003598:	39404fe0 	ldrb	w0, [sp, #19]
    8000359c:	a8c37bfd 	ldp	x29, x30, [sp], #48
    800035a0:	d65f03c0 	ret
    800035a4:	00000000 	.inst	0x00000000 ; undefined

00000000800035a8 <sc_rm_partition_alloc>:
    800035a8:	72001c5f 	tst	w2, #0xff
    800035ac:	a9bc7bfd 	stp	x29, x30, [sp, #-64]!
    800035b0:	1a9f07e9 	cset	w9, ne  // ne = any
    800035b4:	72001c7f 	tst	w3, #0xff
    800035b8:	910003fd 	mov	x29, sp
    800035bc:	1a9f07e8 	cset	w8, ne  // ne = any
    800035c0:	72001c9f 	tst	w4, #0xff
    800035c4:	1a9f07e7 	cset	w7, ne  // ne = any
    800035c8:	72001cbf 	tst	w5, #0xff
    800035cc:	1a9f07e4 	cset	w4, ne  // ne = any
    800035d0:	72001cdf 	tst	w6, #0xff
    800035d4:	1a9f07e3 	cset	w3, ne  // ne = any
    800035d8:	52806025 	mov	w5, #0x301                 	// #769
    800035dc:	72a02065 	movk	w5, #0x103, lsl #16
    800035e0:	52800002 	mov	w2, #0x0                   	// #0
    800035e4:	f9000bf3 	str	x19, [sp, #16]
    800035e8:	aa0103f3 	mov	x19, x1
    800035ec:	910083e1 	add	x1, sp, #0x20
    800035f0:	b90023e5 	str	w5, [sp, #32]
    800035f4:	390093e9 	strb	w9, [sp, #36]
    800035f8:	390097e8 	strb	w8, [sp, #37]
    800035fc:	39009be7 	strb	w7, [sp, #38]
    80003600:	39009fe4 	strb	w4, [sp, #39]
    80003604:	3900a3e3 	strb	w3, [sp, #40]
    80003608:	97fffee4 	bl	80003198 <sc_call_rpc>
    8000360c:	39408fe0 	ldrb	w0, [sp, #35]
    80003610:	b4000073 	cbz	x19, 8000361c <sc_rm_partition_alloc+0x74>
    80003614:	394093e1 	ldrb	w1, [sp, #36]
    80003618:	39000261 	strb	w1, [x19]
    8000361c:	f9400bf3 	ldr	x19, [sp, #16]
    80003620:	a8c47bfd 	ldp	x29, x30, [sp], #64
    80003624:	d65f03c0 	ret

0000000080003628 <sc_rm_get_partition>:
    80003628:	a9bc7bfd 	stp	x29, x30, [sp, #-64]!
    8000362c:	52802023 	mov	w3, #0x101                 	// #257
    80003630:	72a0a063 	movk	w3, #0x503, lsl #16
    80003634:	910003fd 	mov	x29, sp
    80003638:	52800002 	mov	w2, #0x0                   	// #0
    8000363c:	f9000bf3 	str	x19, [sp, #16]
    80003640:	aa0103f3 	mov	x19, x1
    80003644:	910083e1 	add	x1, sp, #0x20
    80003648:	b90023e3 	str	w3, [sp, #32]
    8000364c:	97fffed3 	bl	80003198 <sc_call_rpc>
    80003650:	39408fe0 	ldrb	w0, [sp, #35]
    80003654:	b4000073 	cbz	x19, 80003660 <sc_rm_get_partition+0x38>
    80003658:	394093e1 	ldrb	w1, [sp, #36]
    8000365c:	39000261 	strb	w1, [x19]
    80003660:	f9400bf3 	ldr	x19, [sp, #16]
    80003664:	a8c47bfd 	ldp	x29, x30, [sp], #64
    80003668:	d65f03c0 	ret
    8000366c:	00000000 	.inst	0x00000000 ; undefined

0000000080003670 <sc_rm_set_parent>:
    80003670:	a9bd7bfd 	stp	x29, x30, [sp, #-48]!
    80003674:	52804023 	mov	w3, #0x201                 	// #513
    80003678:	72a0c063 	movk	w3, #0x603, lsl #16
    8000367c:	910003fd 	mov	x29, sp
    80003680:	b90013e3 	str	w3, [sp, #16]
    80003684:	390053e1 	strb	w1, [sp, #20]
    80003688:	910043e1 	add	x1, sp, #0x10
    8000368c:	390057e2 	strb	w2, [sp, #21]
    80003690:	52800002 	mov	w2, #0x0                   	// #0
    80003694:	97fffec1 	bl	80003198 <sc_call_rpc>
    80003698:	39404fe0 	ldrb	w0, [sp, #19]
    8000369c:	a8c37bfd 	ldp	x29, x30, [sp], #48
    800036a0:	d65f03c0 	ret
    800036a4:	00000000 	.inst	0x00000000 ; undefined

00000000800036a8 <sc_rm_move_all>:
    800036a8:	72001c7f 	tst	w3, #0xff
    800036ac:	a9bd7bfd 	stp	x29, x30, [sp, #-48]!
    800036b0:	1a9f07e5 	cset	w5, ne  // ne = any
    800036b4:	72001c9f 	tst	w4, #0xff
    800036b8:	52804026 	mov	w6, #0x201                 	// #513
    800036bc:	1a9f07e3 	cset	w3, ne  // ne = any
    800036c0:	72a0e066 	movk	w6, #0x703, lsl #16
    800036c4:	910003fd 	mov	x29, sp
    800036c8:	b90013e6 	str	w6, [sp, #16]
    800036cc:	390053e1 	strb	w1, [sp, #20]
    800036d0:	910043e1 	add	x1, sp, #0x10
    800036d4:	390057e2 	strb	w2, [sp, #21]
    800036d8:	52800002 	mov	w2, #0x0                   	// #0
    800036dc:	39005be5 	strb	w5, [sp, #22]
    800036e0:	39005fe3 	strb	w3, [sp, #23]
    800036e4:	97fffead 	bl	80003198 <sc_call_rpc>
    800036e8:	39404fe0 	ldrb	w0, [sp, #19]
    800036ec:	a8c37bfd 	ldp	x29, x30, [sp], #48
    800036f0:	d65f03c0 	ret
    800036f4:	00000000 	.inst	0x00000000 ; undefined

00000000800036f8 <sc_rm_assign_resource>:
    800036f8:	a9bd7bfd 	stp	x29, x30, [sp, #-48]!
    800036fc:	52804023 	mov	w3, #0x201                 	// #513
    80003700:	72a10063 	movk	w3, #0x803, lsl #16
    80003704:	910003fd 	mov	x29, sp
    80003708:	b90013e3 	str	w3, [sp, #16]
    8000370c:	79002be2 	strh	w2, [sp, #20]
    80003710:	52800002 	mov	w2, #0x0                   	// #0
    80003714:	39005be1 	strb	w1, [sp, #22]
    80003718:	910043e1 	add	x1, sp, #0x10
    8000371c:	97fffe9f 	bl	80003198 <sc_call_rpc>
    80003720:	39404fe0 	ldrb	w0, [sp, #19]
    80003724:	a8c37bfd 	ldp	x29, x30, [sp], #48
    80003728:	d65f03c0 	ret
    8000372c:	00000000 	.inst	0x00000000 ; undefined

0000000080003730 <sc_rm_set_resource_movable>:
    80003730:	72001c7f 	tst	w3, #0xff
    80003734:	a9bd7bfd 	stp	x29, x30, [sp, #-48]!
    80003738:	1a9f07e3 	cset	w3, ne  // ne = any
    8000373c:	52806024 	mov	w4, #0x301                 	// #769
    80003740:	910003fd 	mov	x29, sp
    80003744:	72a12064 	movk	w4, #0x903, lsl #16
    80003748:	b90013e4 	str	w4, [sp, #16]
    8000374c:	79002be1 	strh	w1, [sp, #20]
    80003750:	910043e1 	add	x1, sp, #0x10
    80003754:	79002fe2 	strh	w2, [sp, #22]
    80003758:	52800002 	mov	w2, #0x0                   	// #0
    8000375c:	390063e3 	strb	w3, [sp, #24]
    80003760:	97fffe8e 	bl	80003198 <sc_call_rpc>
    80003764:	39404fe0 	ldrb	w0, [sp, #19]
    80003768:	a8c37bfd 	ldp	x29, x30, [sp], #48
    8000376c:	d65f03c0 	ret

0000000080003770 <sc_rm_set_peripheral_permissions>:
    80003770:	a9bd7bfd 	stp	x29, x30, [sp, #-48]!
    80003774:	52804024 	mov	w4, #0x201                 	// #513
    80003778:	72a18064 	movk	w4, #0xc03, lsl #16
    8000377c:	910003fd 	mov	x29, sp
    80003780:	b90013e4 	str	w4, [sp, #16]
    80003784:	79002be1 	strh	w1, [sp, #20]
    80003788:	910043e1 	add	x1, sp, #0x10
    8000378c:	39005be2 	strb	w2, [sp, #22]
    80003790:	52800002 	mov	w2, #0x0                   	// #0
    80003794:	39005fe3 	strb	w3, [sp, #23]
    80003798:	97fffe80 	bl	80003198 <sc_call_rpc>
    8000379c:	39404fe0 	ldrb	w0, [sp, #19]
    800037a0:	a8c37bfd 	ldp	x29, x30, [sp], #48
    800037a4:	d65f03c0 	ret

00000000800037a8 <sc_rm_is_resource_owned>:
    800037a8:	a9bd7bfd 	stp	x29, x30, [sp, #-48]!
    800037ac:	52804023 	mov	w3, #0x201                 	// #513
    800037b0:	72a1a063 	movk	w3, #0xd03, lsl #16
    800037b4:	910003fd 	mov	x29, sp
    800037b8:	52800002 	mov	w2, #0x0                   	// #0
    800037bc:	b90013e3 	str	w3, [sp, #16]
    800037c0:	79002be1 	strh	w1, [sp, #20]
    800037c4:	910043e1 	add	x1, sp, #0x10
    800037c8:	97fffe74 	bl	80003198 <sc_call_rpc>
    800037cc:	39404fe0 	ldrb	w0, [sp, #19]
    800037d0:	a8c37bfd 	ldp	x29, x30, [sp], #48
    800037d4:	7100001f 	cmp	w0, #0x0
    800037d8:	1a9f07e0 	cset	w0, ne  // ne = any
    800037dc:	d65f03c0 	ret

00000000800037e0 <sc_rm_memreg_alloc>:
    800037e0:	a9bc7bfd 	stp	x29, x30, [sp, #-64]!
    800037e4:	aa0203e4 	mov	x4, x2
    800037e8:	d360fc46 	lsr	x6, x2, #32
    800037ec:	d360fc65 	lsr	x5, x3, #32
    800037f0:	5280a027 	mov	w7, #0x501                 	// #1281
    800037f4:	72a22067 	movk	w7, #0x1103, lsl #16
    800037f8:	910003fd 	mov	x29, sp
    800037fc:	52800002 	mov	w2, #0x0                   	// #0
    80003800:	f9000bf3 	str	x19, [sp, #16]
    80003804:	aa0103f3 	mov	x19, x1
    80003808:	910083e1 	add	x1, sp, #0x20
    8000380c:	29041be7 	stp	w7, w6, [sp, #32]
    80003810:	290517e4 	stp	w4, w5, [sp, #40]
    80003814:	b90033e3 	str	w3, [sp, #48]
    80003818:	97fffe60 	bl	80003198 <sc_call_rpc>
    8000381c:	39408fe0 	ldrb	w0, [sp, #35]
    80003820:	b4000073 	cbz	x19, 8000382c <sc_rm_memreg_alloc+0x4c>
    80003824:	394093e1 	ldrb	w1, [sp, #36]
    80003828:	39000261 	strb	w1, [x19]
    8000382c:	f9400bf3 	ldr	x19, [sp, #16]
    80003830:	a8c47bfd 	ldp	x29, x30, [sp], #64
    80003834:	d65f03c0 	ret

0000000080003838 <sc_rm_assign_memreg>:
    80003838:	a9bd7bfd 	stp	x29, x30, [sp, #-48]!
    8000383c:	52804023 	mov	w3, #0x201                 	// #513
    80003840:	72a26063 	movk	w3, #0x1303, lsl #16
    80003844:	910003fd 	mov	x29, sp
    80003848:	b90013e3 	str	w3, [sp, #16]
    8000384c:	390053e1 	strb	w1, [sp, #20]
    80003850:	910043e1 	add	x1, sp, #0x10
    80003854:	390057e2 	strb	w2, [sp, #21]
    80003858:	52800002 	mov	w2, #0x0                   	// #0
    8000385c:	97fffe4f 	bl	80003198 <sc_call_rpc>
    80003860:	39404fe0 	ldrb	w0, [sp, #19]
    80003864:	a8c37bfd 	ldp	x29, x30, [sp], #48
    80003868:	d65f03c0 	ret
    8000386c:	00000000 	.inst	0x00000000 ; undefined

0000000080003870 <sc_rm_is_memreg_owned>:
    80003870:	a9bd7bfd 	stp	x29, x30, [sp, #-48]!
    80003874:	52804023 	mov	w3, #0x201                 	// #513
    80003878:	72a2a063 	movk	w3, #0x1503, lsl #16
    8000387c:	910003fd 	mov	x29, sp
    80003880:	52800002 	mov	w2, #0x0                   	// #0
    80003884:	b90013e3 	str	w3, [sp, #16]
    80003888:	390053e1 	strb	w1, [sp, #20]
    8000388c:	910043e1 	add	x1, sp, #0x10
    80003890:	97fffe42 	bl	80003198 <sc_call_rpc>
    80003894:	39404fe0 	ldrb	w0, [sp, #19]
    80003898:	a8c37bfd 	ldp	x29, x30, [sp], #48
    8000389c:	7100001f 	cmp	w0, #0x0
    800038a0:	1a9f07e0 	cset	w0, ne  // ne = any
    800038a4:	d65f03c0 	ret

00000000800038a8 <sc_rm_get_memreg_info>:
    800038a8:	a9bc7bfd 	stp	x29, x30, [sp, #-64]!
    800038ac:	910003fd 	mov	x29, sp
    800038b0:	a90153f3 	stp	x19, x20, [sp, #16]
    800038b4:	aa0303f3 	mov	x19, x3
    800038b8:	52804023 	mov	w3, #0x201                 	// #513
    800038bc:	72a2c063 	movk	w3, #0x1603, lsl #16
    800038c0:	aa0203f4 	mov	x20, x2
    800038c4:	52800002 	mov	w2, #0x0                   	// #0
    800038c8:	b90023e3 	str	w3, [sp, #32]
    800038cc:	390093e1 	strb	w1, [sp, #36]
    800038d0:	910083e1 	add	x1, sp, #0x20
    800038d4:	97fffe31 	bl	80003198 <sc_call_rpc>
    800038d8:	b4000094 	cbz	x20, 800038e8 <sc_rm_get_memreg_info+0x40>
    800038dc:	294487e0 	ldp	w0, w1, [sp, #36]
    800038e0:	aa008020 	orr	x0, x1, x0, lsl #32
    800038e4:	f9000280 	str	x0, [x20]
    800038e8:	b4000093 	cbz	x19, 800038f8 <sc_rm_get_memreg_info+0x50>
    800038ec:	294587e0 	ldp	w0, w1, [sp, #44]
    800038f0:	aa008020 	orr	x0, x1, x0, lsl #32
    800038f4:	f9000260 	str	x0, [x19]
    800038f8:	39408fe0 	ldrb	w0, [sp, #35]
    800038fc:	a94153f3 	ldp	x19, x20, [sp, #16]
    80003900:	a8c47bfd 	ldp	x29, x30, [sp], #64
    80003904:	d65f03c0 	ret

0000000080003908 <sc_timer_set_wdog_timeout>:
    80003908:	a9bd7bfd 	stp	x29, x30, [sp, #-48]!
    8000390c:	2a0103e3 	mov	w3, w1
    80003910:	52804024 	mov	w4, #0x201                 	// #513
    80003914:	72a020a4 	movk	w4, #0x105, lsl #16
    80003918:	910003fd 	mov	x29, sp
    8000391c:	910043e1 	add	x1, sp, #0x10
    80003920:	52800002 	mov	w2, #0x0                   	// #0
    80003924:	29020fe4 	stp	w4, w3, [sp, #16]
    80003928:	97fffe1c 	bl	80003198 <sc_call_rpc>
    8000392c:	39404fe0 	ldrb	w0, [sp, #19]
    80003930:	a8c37bfd 	ldp	x29, x30, [sp], #48
    80003934:	d65f03c0 	ret

0000000080003938 <sc_timer_set_wdog_pre_timeout>:
    80003938:	a9bd7bfd 	stp	x29, x30, [sp, #-48]!
    8000393c:	2a0103e3 	mov	w3, w1
    80003940:	52804024 	mov	w4, #0x201                 	// #513
    80003944:	72a180a4 	movk	w4, #0xc05, lsl #16
    80003948:	910003fd 	mov	x29, sp
    8000394c:	910043e1 	add	x1, sp, #0x10
    80003950:	52800002 	mov	w2, #0x0                   	// #0
    80003954:	29020fe4 	stp	w4, w3, [sp, #16]
    80003958:	97fffe10 	bl	80003198 <sc_call_rpc>
    8000395c:	39404fe0 	ldrb	w0, [sp, #19]
    80003960:	a8c37bfd 	ldp	x29, x30, [sp], #48
    80003964:	d65f03c0 	ret

0000000080003968 <sc_timer_start_wdog>:
    80003968:	72001c3f 	tst	w1, #0xff
    8000396c:	a9bd7bfd 	stp	x29, x30, [sp, #-48]!
    80003970:	1a9f07e3 	cset	w3, ne  // ne = any
    80003974:	52804024 	mov	w4, #0x201                 	// #513
    80003978:	910003fd 	mov	x29, sp
    8000397c:	72a040a4 	movk	w4, #0x205, lsl #16
    80003980:	910043e1 	add	x1, sp, #0x10
    80003984:	52800002 	mov	w2, #0x0                   	// #0
    80003988:	b90013e4 	str	w4, [sp, #16]
    8000398c:	390053e3 	strb	w3, [sp, #20]
    80003990:	97fffe02 	bl	80003198 <sc_call_rpc>
    80003994:	39404fe0 	ldrb	w0, [sp, #19]
    80003998:	a8c37bfd 	ldp	x29, x30, [sp], #48
    8000399c:	d65f03c0 	ret

00000000800039a0 <sc_timer_stop_wdog>:
    800039a0:	a9bd7bfd 	stp	x29, x30, [sp, #-48]!
    800039a4:	52802023 	mov	w3, #0x101                 	// #257
    800039a8:	72a060a3 	movk	w3, #0x305, lsl #16
    800039ac:	910003fd 	mov	x29, sp
    800039b0:	910043e1 	add	x1, sp, #0x10
    800039b4:	52800002 	mov	w2, #0x0                   	// #0
    800039b8:	b90013e3 	str	w3, [sp, #16]
    800039bc:	97fffdf7 	bl	80003198 <sc_call_rpc>
    800039c0:	39404fe0 	ldrb	w0, [sp, #19]
    800039c4:	a8c37bfd 	ldp	x29, x30, [sp], #48
    800039c8:	d65f03c0 	ret
    800039cc:	00000000 	.inst	0x00000000 ; undefined

00000000800039d0 <sc_timer_ping_wdog>:
    800039d0:	a9bd7bfd 	stp	x29, x30, [sp, #-48]!
    800039d4:	52802023 	mov	w3, #0x101                 	// #257
    800039d8:	72a080a3 	movk	w3, #0x405, lsl #16
    800039dc:	910003fd 	mov	x29, sp
    800039e0:	910043e1 	add	x1, sp, #0x10
    800039e4:	52800002 	mov	w2, #0x0                   	// #0
    800039e8:	b90013e3 	str	w3, [sp, #16]
    800039ec:	97fffdeb 	bl	80003198 <sc_call_rpc>
    800039f0:	39404fe0 	ldrb	w0, [sp, #19]
    800039f4:	a8c37bfd 	ldp	x29, x30, [sp], #48
    800039f8:	d65f03c0 	ret
    800039fc:	00000000 	.inst	0x00000000 ; undefined

0000000080003a00 <sc_timer_get_wdog_status>:
    80003a00:	a9bb7bfd 	stp	x29, x30, [sp, #-80]!
    80003a04:	910003fd 	mov	x29, sp
    80003a08:	a90153f3 	stp	x19, x20, [sp, #16]
    80003a0c:	aa0303f3 	mov	x19, x3
    80003a10:	52802023 	mov	w3, #0x101                 	// #257
    80003a14:	72a0a0a3 	movk	w3, #0x505, lsl #16
    80003a18:	aa0203f4 	mov	x20, x2
    80003a1c:	52800002 	mov	w2, #0x0                   	// #0
    80003a20:	f90013f5 	str	x21, [sp, #32]
    80003a24:	aa0103f5 	mov	x21, x1
    80003a28:	9100c3e1 	add	x1, sp, #0x30
    80003a2c:	b90033e3 	str	w3, [sp, #48]
    80003a30:	97fffdda 	bl	80003198 <sc_call_rpc>
    80003a34:	b4000075 	cbz	x21, 80003a40 <sc_timer_get_wdog_status+0x40>
    80003a38:	b94037e0 	ldr	w0, [sp, #52]
    80003a3c:	b90002a0 	str	w0, [x21]
    80003a40:	b4000074 	cbz	x20, 80003a4c <sc_timer_get_wdog_status+0x4c>
    80003a44:	b9403be0 	ldr	w0, [sp, #56]
    80003a48:	b9000280 	str	w0, [x20]
    80003a4c:	b4000073 	cbz	x19, 80003a58 <sc_timer_get_wdog_status+0x58>
    80003a50:	b9403fe0 	ldr	w0, [sp, #60]
    80003a54:	b9000260 	str	w0, [x19]
    80003a58:	3940cfe0 	ldrb	w0, [sp, #51]
    80003a5c:	a94153f3 	ldp	x19, x20, [sp, #16]
    80003a60:	f94013f5 	ldr	x21, [sp, #32]
    80003a64:	a8c57bfd 	ldp	x29, x30, [sp], #80
    80003a68:	d65f03c0 	ret
    80003a6c:	00000000 	.inst	0x00000000 ; undefined

0000000080003a70 <sc_timer_set_wdog_action>:
    80003a70:	a9bd7bfd 	stp	x29, x30, [sp, #-48]!
    80003a74:	52804023 	mov	w3, #0x201                 	// #513
    80003a78:	72a140a3 	movk	w3, #0xa05, lsl #16
    80003a7c:	910003fd 	mov	x29, sp
    80003a80:	b90013e3 	str	w3, [sp, #16]
    80003a84:	390053e1 	strb	w1, [sp, #20]
    80003a88:	910043e1 	add	x1, sp, #0x10
    80003a8c:	390057e2 	strb	w2, [sp, #21]
    80003a90:	52800002 	mov	w2, #0x0                   	// #0
    80003a94:	97fffdc1 	bl	80003198 <sc_call_rpc>
    80003a98:	39404fe0 	ldrb	w0, [sp, #19]
    80003a9c:	a8c37bfd 	ldp	x29, x30, [sp], #48
    80003aa0:	d65f03c0 	ret
    80003aa4:	00000000 	.inst	0x00000000 ; undefined

0000000080003aa8 <sc_timer_set_rtc_time>:
    80003aa8:	a9bd7bfd 	stp	x29, x30, [sp, #-48]!
    80003aac:	52806027 	mov	w7, #0x301                 	// #769
    80003ab0:	72a0c0a7 	movk	w7, #0x605, lsl #16
    80003ab4:	910003fd 	mov	x29, sp
    80003ab8:	b90013e7 	str	w7, [sp, #16]
    80003abc:	79002be1 	strh	w1, [sp, #20]
    80003ac0:	910043e1 	add	x1, sp, #0x10
    80003ac4:	39005be2 	strb	w2, [sp, #22]
    80003ac8:	52800002 	mov	w2, #0x0                   	// #0
    80003acc:	39005fe3 	strb	w3, [sp, #23]
    80003ad0:	390063e4 	strb	w4, [sp, #24]
    80003ad4:	390067e5 	strb	w5, [sp, #25]
    80003ad8:	39006be6 	strb	w6, [sp, #26]
    80003adc:	97fffdaf 	bl	80003198 <sc_call_rpc>
    80003ae0:	39404fe0 	ldrb	w0, [sp, #19]
    80003ae4:	a8c37bfd 	ldp	x29, x30, [sp], #48
    80003ae8:	d65f03c0 	ret
    80003aec:	00000000 	.inst	0x00000000 ; undefined

0000000080003af0 <sc_misc_get_control>:
    80003af0:	a9bc7bfd 	stp	x29, x30, [sp, #-64]!
    80003af4:	2a0203e4 	mov	w4, w2
    80003af8:	52800002 	mov	w2, #0x0                   	// #0
    80003afc:	910003fd 	mov	x29, sp
    80003b00:	f9000bf3 	str	x19, [sp, #16]
    80003b04:	aa0303f3 	mov	x19, x3
    80003b08:	52806023 	mov	w3, #0x301                 	// #769
    80003b0c:	b90027e4 	str	w4, [sp, #36]
    80003b10:	72a040e3 	movk	w3, #0x207, lsl #16
    80003b14:	b90023e3 	str	w3, [sp, #32]
    80003b18:	790053e1 	strh	w1, [sp, #40]
    80003b1c:	910083e1 	add	x1, sp, #0x20
    80003b20:	97fffd9e 	bl	80003198 <sc_call_rpc>
    80003b24:	b4000073 	cbz	x19, 80003b30 <sc_misc_get_control+0x40>
    80003b28:	b94027e0 	ldr	w0, [sp, #36]
    80003b2c:	b9000260 	str	w0, [x19]
    80003b30:	39408fe0 	ldrb	w0, [sp, #35]
    80003b34:	f9400bf3 	ldr	x19, [sp, #16]
    80003b38:	a8c47bfd 	ldp	x29, x30, [sp], #64
    80003b3c:	d65f03c0 	ret

0000000080003b40 <sc_misc_otp_fuse_read>:
    80003b40:	a9bc7bfd 	stp	x29, x30, [sp, #-64]!
    80003b44:	2a0103e3 	mov	w3, w1
    80003b48:	52804024 	mov	w4, #0x201                 	// #513
    80003b4c:	72a160e4 	movk	w4, #0xb07, lsl #16
    80003b50:	910003fd 	mov	x29, sp
    80003b54:	910083e1 	add	x1, sp, #0x20
    80003b58:	f9000bf3 	str	x19, [sp, #16]
    80003b5c:	aa0203f3 	mov	x19, x2
    80003b60:	52800002 	mov	w2, #0x0                   	// #0
    80003b64:	29040fe4 	stp	w4, w3, [sp, #32]
    80003b68:	97fffd8c 	bl	80003198 <sc_call_rpc>
    80003b6c:	b4000073 	cbz	x19, 80003b78 <sc_misc_otp_fuse_read+0x38>
    80003b70:	b94027e0 	ldr	w0, [sp, #36]
    80003b74:	b9000260 	str	w0, [x19]
    80003b78:	39408fe0 	ldrb	w0, [sp, #35]
    80003b7c:	f9400bf3 	ldr	x19, [sp, #16]
    80003b80:	a8c47bfd 	ldp	x29, x30, [sp], #64
    80003b84:	d65f03c0 	ret

0000000080003b88 <sc_misc_otp_fuse_write>:
    80003b88:	a9bd7bfd 	stp	x29, x30, [sp, #-48]!
    80003b8c:	2a0103e4 	mov	w4, w1
    80003b90:	2a0203e3 	mov	w3, w2
    80003b94:	52806025 	mov	w5, #0x301                 	// #769
    80003b98:	910003fd 	mov	x29, sp
    80003b9c:	72a220e5 	movk	w5, #0x1107, lsl #16
    80003ba0:	910043e1 	add	x1, sp, #0x10
    80003ba4:	52800002 	mov	w2, #0x0                   	// #0
    80003ba8:	290213e5 	stp	w5, w4, [sp, #16]
    80003bac:	b9001be3 	str	w3, [sp, #24]
    80003bb0:	97fffd7a 	bl	80003198 <sc_call_rpc>
    80003bb4:	39404fe0 	ldrb	w0, [sp, #19]
    80003bb8:	a8c37bfd 	ldp	x29, x30, [sp], #48
    80003bbc:	d65f03c0 	ret

0000000080003bc0 <sc_misc_set_temp>:
    80003bc0:	a9bd7bfd 	stp	x29, x30, [sp, #-48]!
    80003bc4:	52806025 	mov	w5, #0x301                 	// #769
    80003bc8:	72a180e5 	movk	w5, #0xc07, lsl #16
    80003bcc:	910003fd 	mov	x29, sp
    80003bd0:	b90013e5 	str	w5, [sp, #16]
    80003bd4:	79002be1 	strh	w1, [sp, #20]
    80003bd8:	910043e1 	add	x1, sp, #0x10
    80003bdc:	79002fe3 	strh	w3, [sp, #22]
    80003be0:	390063e2 	strb	w2, [sp, #24]
    80003be4:	52800002 	mov	w2, #0x0                   	// #0
    80003be8:	390067e4 	strb	w4, [sp, #25]
    80003bec:	97fffd6b 	bl	80003198 <sc_call_rpc>
    80003bf0:	39404fe0 	ldrb	w0, [sp, #19]
    80003bf4:	a8c37bfd 	ldp	x29, x30, [sp], #48
    80003bf8:	d65f03c0 	ret
    80003bfc:	00000000 	.inst	0x00000000 ; undefined

0000000080003c00 <get_arm_std_svc_args>:
    80003c00:	90000020 	adrp	x0, 80007000 <vprintf+0x238>
    80003c04:	911f2000 	add	x0, x0, #0x7c8
    80003c08:	d65f03c0 	ret
    80003c0c:	00000000 	.inst	0x00000000 ; undefined

0000000080003c10 <bl31_prepare_next_image_entry>:
    80003c10:	a9be7bfd 	stp	x29, x30, [sp, #-32]!
    80003c14:	910003fd 	mov	x29, sp
    80003c18:	a90153f3 	stp	x19, x20, [sp, #16]
    80003c1c:	d5380400 	mrs	x0, id_aa64pfr0_el1
    80003c20:	d3441c00 	ubfx	x0, x0, #4, #4
    80003c24:	f100041f 	cmp	x0, #0x1
    80003c28:	540001a0 	b.eq	80003c5c <bl31_prepare_next_image_entry+0x4c>  // b.none
    80003c2c:	d0000020 	adrp	x0, 80009000 <__RO_END_UNALIGNED__>
    80003c30:	b9402814 	ldr	w20, [x0, #40]
    80003c34:	2a1403e0 	mov	w0, w20
    80003c38:	97fff370 	bl	800009f8 <bl31_plat_get_next_image_ep_info>
    80003c3c:	aa0003f3 	mov	x19, x0
    80003c40:	940008d6 	bl	80005f98 <print_entry_point_info>
    80003c44:	aa1303e0 	mov	x0, x19
    80003c48:	94000160 	bl	800041c8 <cm_init_my_context>
    80003c4c:	2a1403e0 	mov	w0, w20
    80003c50:	a94153f3 	ldp	x19, x20, [sp, #16]
    80003c54:	a8c27bfd 	ldp	x29, x30, [sp], #32
    80003c58:	14000198 	b	800042b8 <cm_prepare_el3_exit>
    80003c5c:	90000020 	adrp	x0, 80007000 <vprintf+0x238>
    80003c60:	911da000 	add	x0, x0, #0x768
    80003c64:	940008cf 	bl	80005fa0 <tf_log>
    80003c68:	940009de 	bl	800063e0 <console_flush>
    80003c6c:	94000b43 	bl	80006978 <do_panic>

0000000080003c70 <bl31_main>:
    80003c70:	a9be7bfd 	stp	x29, x30, [sp, #-32]!
    80003c74:	90000021 	adrp	x1, 80007000 <vprintf+0x238>
    80003c78:	910d0021 	add	x1, x1, #0x340
    80003c7c:	910003fd 	mov	x29, sp
    80003c80:	f9000bf3 	str	x19, [sp, #16]
    80003c84:	90000033 	adrp	x19, 80007000 <vprintf+0x238>
    80003c88:	911ee273 	add	x19, x19, #0x7b8
    80003c8c:	aa1303e0 	mov	x0, x19
    80003c90:	940008c4 	bl	80005fa0 <tf_log>
    80003c94:	aa1303e0 	mov	x0, x19
    80003c98:	90000021 	adrp	x1, 80007000 <vprintf+0x238>
    80003c9c:	910c8021 	add	x1, x1, #0x320
    80003ca0:	940008c0 	bl	80005fa0 <tf_log>
    80003ca4:	97fff34f 	bl	800009e0 <bl31_platform_setup>
    80003ca8:	940000f8 	bl	80004088 <cm_init>
    80003cac:	94000037 	bl	80003d88 <runtime_svc_init>
    80003cb0:	d0000040 	adrp	x0, 8000d000 <imx_gicv3_ctx+0x26c0>
    80003cb4:	f9424000 	ldr	x0, [x0, #1152]
    80003cb8:	b4000040 	cbz	x0, 80003cc0 <bl31_main+0x50>
    80003cbc:	d63f0000 	blr	x0
    80003cc0:	97ffffd4 	bl	80003c10 <bl31_prepare_next_image_entry>
    80003cc4:	940009c7 	bl	800063e0 <console_flush>
    80003cc8:	f9400bf3 	ldr	x19, [sp, #16]
    80003ccc:	a8c27bfd 	ldp	x29, x30, [sp], #32
    80003cd0:	17fff358 	b	80000a30 <bl31_plat_runtime_setup>
    80003cd4:	00000000 	.inst	0x00000000 ; undefined

0000000080003cd8 <get_scr_el3_from_routing_model>:
    80003cd8:	d0000041 	adrp	x1, 8000d000 <imx_gicv3_ctx+0x26c0>
    80003cdc:	91122021 	add	x1, x1, #0x488
    80003ce0:	8b204822 	add	x2, x1, w0, uxtw #2
    80003ce4:	aa0203e3 	mov	x3, x2
    80003ce8:	b9403c41 	ldr	w1, [x2, #60]
    80003cec:	b9400c63 	ldr	w3, [x3, #12]
    80003cf0:	b9402442 	ldr	w2, [x2, #36]
    80003cf4:	2a030020 	orr	w0, w1, w3
    80003cf8:	2a020000 	orr	w0, w0, w2
    80003cfc:	d65f03c0 	ret

0000000080003d00 <get_interrupt_type_handler>:
    80003d00:	7100081f 	cmp	w0, #0x2
    80003d04:	540000e8 	b.hi	80003d20 <get_interrupt_type_handler+0x20>  // b.pmore
    80003d08:	d37f7c02 	ubfiz	x2, x0, #1, #32
    80003d0c:	d0000041 	adrp	x1, 8000d000 <imx_gicv3_ctx+0x26c0>
    80003d10:	8b204040 	add	x0, x2, w0, uxtw
    80003d14:	91122021 	add	x1, x1, #0x488
    80003d18:	f8607820 	ldr	x0, [x1, x0, lsl #3]
    80003d1c:	d65f03c0 	ret
    80003d20:	d2800000 	mov	x0, #0x0                   	// #0
    80003d24:	d65f03c0 	ret

0000000080003d28 <cm_get_context>:
    80003d28:	d53ed041 	mrs	x1, tpidr_el3
    80003d2c:	f8605820 	ldr	x0, [x1, w0, uxtw #3]
    80003d30:	d65f03c0 	ret
    80003d34:	00000000 	.inst	0x00000000 ; undefined

0000000080003d38 <cm_get_context_by_index>:
    80003d38:	a9be7bfd 	stp	x29, x30, [sp, #-32]!
    80003d3c:	910003fd 	mov	x29, sp
    80003d40:	f9000bf3 	str	x19, [sp, #16]
    80003d44:	2a0103f3 	mov	w19, w1
    80003d48:	94000a31 	bl	8000660c <_cpu_data_by_index>
    80003d4c:	f8735800 	ldr	x0, [x0, w19, uxtw #3]
    80003d50:	f9400bf3 	ldr	x19, [sp, #16]
    80003d54:	a8c27bfd 	ldp	x29, x30, [sp], #32
    80003d58:	d65f03c0 	ret
    80003d5c:	00000000 	.inst	0x00000000 ; undefined

0000000080003d60 <cm_set_context_by_index>:
    80003d60:	a9be7bfd 	stp	x29, x30, [sp, #-32]!
    80003d64:	910003fd 	mov	x29, sp
    80003d68:	a90153f3 	stp	x19, x20, [sp, #16]
    80003d6c:	2a0203f3 	mov	w19, w2
    80003d70:	aa0103f4 	mov	x20, x1
    80003d74:	94000a26 	bl	8000660c <_cpu_data_by_index>
    80003d78:	f8335814 	str	x20, [x0, w19, uxtw #3]
    80003d7c:	a94153f3 	ldp	x19, x20, [sp, #16]
    80003d80:	a8c27bfd 	ldp	x29, x30, [sp], #32
    80003d84:	d65f03c0 	ret

0000000080003d88 <runtime_svc_init>:
    80003d88:	a9bb7bfd 	stp	x29, x30, [sp, #-80]!
    80003d8c:	910003fd 	mov	x29, sp
    80003d90:	a90153f3 	stp	x19, x20, [sp, #16]
    80003d94:	90000033 	adrp	x19, 80007000 <vprintf+0x238>
    80003d98:	9127a273 	add	x19, x19, #0x9e8
    80003d9c:	f90023f9 	str	x25, [sp, #64]
    80003da0:	90000039 	adrp	x25, 80007000 <vprintf+0x238>
    80003da4:	91262339 	add	x25, x25, #0x988
    80003da8:	cb190273 	sub	x19, x19, x25
    80003dac:	f1007e7f 	cmp	x19, #0x1f
    80003db0:	540000a8 	b.hi	80003dc4 <runtime_svc_init+0x3c>  // b.pmore
    80003db4:	a94153f3 	ldp	x19, x20, [sp, #16]
    80003db8:	f94023f9 	ldr	x25, [sp, #64]
    80003dbc:	a8c57bfd 	ldp	x29, x30, [sp], #80
    80003dc0:	d65f03c0 	ret
    80003dc4:	90000034 	adrp	x20, 80007000 <vprintf+0x238>
    80003dc8:	d345fe73 	lsr	x19, x19, #5
    80003dcc:	91200294 	add	x20, x20, #0x800
    80003dd0:	a9025bf5 	stp	x21, x22, [sp, #32]
    80003dd4:	d2800016 	mov	x22, #0x0                   	// #0
    80003dd8:	a90363f7 	stp	x23, x24, [sp, #48]
    80003ddc:	52800018 	mov	w24, #0x0                   	// #0
    80003de0:	f0000057 	adrp	x23, 8000e000 <psci_ns_context+0xb20>
    80003de4:	910902f7 	add	x23, x23, #0x240
    80003de8:	d2801002 	mov	x2, #0x80                  	// #128
    80003dec:	aa1703e0 	mov	x0, x23
    80003df0:	12800001 	mov	w1, #0xffffffff            	// #-1
    80003df4:	94000bb5 	bl	80006cc8 <memset>
    80003df8:	d37bead6 	lsl	x22, x22, #5
    80003dfc:	8b160335 	add	x21, x25, x22
    80003e00:	38766b22 	ldrb	w2, [x25, x22]
    80003e04:	394006a0 	ldrb	w0, [x21, #1]
    80003e08:	7100fc1f 	cmp	w0, #0x3f
    80003e0c:	7a409042 	ccmp	w2, w0, #0x2, ls  // ls = plast
    80003e10:	54000588 	b.hi	80003ec0 <runtime_svc_init+0x138>  // b.pmore
    80003e14:	39400aa1 	ldrb	w1, [x21, #2]
    80003e18:	7100043f 	cmp	w1, #0x1
    80003e1c:	54000528 	b.hi	80003ec0 <runtime_svc_init+0x138>  // b.pmore
    80003e20:	f9400aa3 	ldr	x3, [x21, #16]
    80003e24:	b40004a3 	cbz	x3, 80003eb8 <runtime_svc_init+0x130>
    80003e28:	d63f0060 	blr	x3
    80003e2c:	35000360 	cbnz	w0, 80003e98 <runtime_svc_init+0x110>
    80003e30:	38766b22 	ldrb	w2, [x25, x22]
    80003e34:	39400aa1 	ldrb	w1, [x21, #2]
    80003e38:	394006a0 	ldrb	w0, [x21, #1]
    80003e3c:	531a0021 	ubfiz	w1, w1, #6, #1
    80003e40:	12001400 	and	w0, w0, #0x3f
    80003e44:	12001442 	and	w2, w2, #0x3f
    80003e48:	2a010042 	orr	w2, w2, w1
    80003e4c:	2a010001 	orr	w1, w0, w1
    80003e50:	6b01005f 	cmp	w2, w1
    80003e54:	2a0203e0 	mov	w0, w2
    80003e58:	12001f02 	and	w2, w24, #0xff
    80003e5c:	540000a8 	b.hi	80003e70 <runtime_svc_init+0xe8>  // b.pmore
    80003e60:	38206ae2 	strb	w2, [x23, x0]
    80003e64:	91000400 	add	x0, x0, #0x1
    80003e68:	6b00003f 	cmp	w1, w0
    80003e6c:	54ffffa2 	b.cs	80003e60 <runtime_svc_init+0xd8>  // b.hs, b.nlast
    80003e70:	11000716 	add	w22, w24, #0x1
    80003e74:	aa1603f8 	mov	x24, x22
    80003e78:	eb36427f 	cmp	x19, w22, uxtw
    80003e7c:	54fffbe8 	b.hi	80003df8 <runtime_svc_init+0x70>  // b.pmore
    80003e80:	a94153f3 	ldp	x19, x20, [sp, #16]
    80003e84:	a9425bf5 	ldp	x21, x22, [sp, #32]
    80003e88:	a94363f7 	ldp	x23, x24, [sp, #48]
    80003e8c:	f94023f9 	ldr	x25, [sp, #64]
    80003e90:	a8c57bfd 	ldp	x29, x30, [sp], #80
    80003e94:	d65f03c0 	ret
    80003e98:	f94006a1 	ldr	x1, [x21, #8]
    80003e9c:	11000716 	add	w22, w24, #0x1
    80003ea0:	aa1403e0 	mov	x0, x20
    80003ea4:	aa1603f8 	mov	x24, x22
    80003ea8:	9400083e 	bl	80005fa0 <tf_log>
    80003eac:	eb36427f 	cmp	x19, w22, uxtw
    80003eb0:	54fffa48 	b.hi	80003df8 <runtime_svc_init+0x70>  // b.pmore
    80003eb4:	17fffff3 	b	80003e80 <runtime_svc_init+0xf8>
    80003eb8:	f9400ea3 	ldr	x3, [x21, #24]
    80003ebc:	b5fffc03 	cbnz	x3, 80003e3c <runtime_svc_init+0xb4>
    80003ec0:	aa1503e1 	mov	x1, x21
    80003ec4:	90000020 	adrp	x0, 80007000 <vprintf+0x238>
    80003ec8:	911f6000 	add	x0, x0, #0x7d8
    80003ecc:	94000835 	bl	80005fa0 <tf_log>
    80003ed0:	94000944 	bl	800063e0 <console_flush>
    80003ed4:	94000aa9 	bl	80006978 <do_panic>

0000000080003ed8 <arm_arch_svc_smc_handler>:
    80003ed8:	320183e2 	mov	w2, #0x80008000            	// #-2147450880
    80003edc:	6b02001f 	cmp	w0, w2
    80003ee0:	54000348 	b.hi	80003f48 <arm_arch_svc_smc_handler+0x70>  // b.pmore
    80003ee4:	32013fe2 	mov	w2, #0x80007fff            	// #-2147450881
    80003ee8:	6b02001f 	cmp	w0, w2
    80003eec:	54000222 	b.cs	80003f30 <arm_arch_svc_smc_handler+0x58>  // b.hs, b.nlast
    80003ef0:	52b00002 	mov	w2, #0x80000000            	// #-2147483648
    80003ef4:	6b02001f 	cmp	w0, w2
    80003ef8:	54000200 	b.eq	80003f38 <arm_arch_svc_smc_handler+0x60>  // b.none
    80003efc:	320107e2 	mov	w2, #0x80000001            	// #-2147483647
    80003f00:	6b02001f 	cmp	w0, w2
    80003f04:	54000221 	b.ne	80003f48 <arm_arch_svc_smc_handler+0x70>  // b.any
    80003f08:	32013fe2 	mov	w2, #0x80007fff            	// #-2147450881
    80003f0c:	92800020 	mov	x0, #0xfffffffffffffffe    	// #-2
    80003f10:	eb02003f 	cmp	x1, x2
    80003f14:	540000c0 	b.eq	80003f2c <arm_arch_svc_smc_handler+0x54>  // b.none
    80003f18:	54000208 	b.hi	80003f58 <arm_arch_svc_smc_handler+0x80>  // b.pmore
    80003f1c:	b26183e0 	mov	x0, #0xffffffff80000000    	// #-2147483648
    80003f20:	8b000021 	add	x1, x1, x0
    80003f24:	f100043f 	cmp	x1, #0x1
    80003f28:	da9f93e0 	csetm	x0, hi  // hi = pmore
    80003f2c:	f90000c0 	str	x0, [x6]
    80003f30:	aa0603e0 	mov	x0, x6
    80003f34:	d65f03c0 	ret
    80003f38:	320083e0 	mov	w0, #0x10001               	// #65537
    80003f3c:	f90000c0 	str	x0, [x6]
    80003f40:	aa0603e0 	mov	x0, x6
    80003f44:	d65f03c0 	ret
    80003f48:	92800000 	mov	x0, #0xffffffffffffffff    	// #-1
    80003f4c:	f90000c0 	str	x0, [x6]
    80003f50:	aa0603e0 	mov	x0, x6
    80003f54:	d65f03c0 	ret
    80003f58:	320183e2 	mov	w2, #0x80008000            	// #-2147450880
    80003f5c:	92800000 	mov	x0, #0xffffffffffffffff    	// #-1
    80003f60:	eb02003f 	cmp	x1, x2
    80003f64:	54fffe41 	b.ne	80003f2c <arm_arch_svc_smc_handler+0x54>  // b.any
    80003f68:	a9be7bfd 	stp	x29, x30, [sp, #-32]!
    80003f6c:	910003fd 	mov	x29, sp
    80003f70:	f9000fe6 	str	x6, [sp, #24]
    80003f74:	940009e1 	bl	800066f8 <check_wa_cve_2017_5715>
    80003f78:	f9400fe6 	ldr	x6, [sp, #24]
    80003f7c:	7100001f 	cmp	w0, #0x0
    80003f80:	9a9f17e0 	cset	x0, eq  // eq = none
    80003f84:	f90000c0 	str	x0, [x6]
    80003f88:	aa0603e0 	mov	x0, x6
    80003f8c:	a8c27bfd 	ldp	x29, x30, [sp], #32
    80003f90:	d65f03c0 	ret
    80003f94:	00000000 	.inst	0x00000000 ; undefined

0000000080003f98 <std_svc_setup>:
    80003f98:	a9bf7bfd 	stp	x29, x30, [sp, #-16]!
    80003f9c:	529ffc00 	mov	w0, #0xffe0                	// #65504
    80003fa0:	910003fd 	mov	x29, sp
    80003fa4:	97ffff17 	bl	80003c00 <get_arm_std_svc_args>
    80003fa8:	9400061c 	bl	80005818 <psci_setup>
    80003fac:	7100001f 	cmp	w0, #0x0
    80003fb0:	1a9f07e0 	cset	w0, ne  // ne = any
    80003fb4:	a8c17bfd 	ldp	x29, x30, [sp], #16
    80003fb8:	d65f03c0 	ret
    80003fbc:	00000000 	.inst	0x00000000 ; undefined

0000000080003fc0 <std_svc_smc_handler>:
    80003fc0:	a9be7bfd 	stp	x29, x30, [sp, #-32]!
    80003fc4:	721b281f 	tst	w0, #0xffe0
    80003fc8:	910003fd 	mov	x29, sp
    80003fcc:	f9000bf3 	str	x19, [sp, #16]
    80003fd0:	aa0603f3 	mov	x19, x6
    80003fd4:	54000260 	b.eq	80004020 <std_svc_smc_handler+0x60>  // b.none
    80003fd8:	2a0003e8 	mov	w8, w0
    80003fdc:	529fe020 	mov	w0, #0xff01                	// #65281
    80003fe0:	72b08000 	movk	w0, #0x8400, lsl #16
    80003fe4:	6b00011f 	cmp	w8, w0
    80003fe8:	54000340 	b.eq	80004050 <std_svc_smc_handler+0x90>  // b.none
    80003fec:	11000800 	add	w0, w0, #0x2
    80003ff0:	6b00011f 	cmp	w8, w0
    80003ff4:	54000220 	b.eq	80004038 <std_svc_smc_handler+0x78>  // b.none
    80003ff8:	529fe000 	mov	w0, #0xff00                	// #65280
    80003ffc:	72b08000 	movk	w0, #0x8400, lsl #16
    80004000:	6b00011f 	cmp	w8, w0
    80004004:	d2800240 	mov	x0, #0x12                  	// #18
    80004008:	da9f0000 	csinv	x0, x0, xzr, eq  // eq = none
    8000400c:	f90000c0 	str	x0, [x6]
    80004010:	aa1303e0 	mov	x0, x19
    80004014:	f9400bf3 	ldr	x19, [sp, #16]
    80004018:	a8c27bfd 	ldp	x29, x30, [sp], #32
    8000401c:	d65f03c0 	ret
    80004020:	94000532 	bl	800054e8 <psci_smc_handler>
    80004024:	f9000260 	str	x0, [x19]
    80004028:	aa1303e0 	mov	x0, x19
    8000402c:	f9400bf3 	ldr	x19, [sp, #16]
    80004030:	a8c27bfd 	ldp	x29, x30, [sp], #32
    80004034:	d65f03c0 	ret
    80004038:	d2800020 	mov	x0, #0x1                   	// #1
    8000403c:	a90000df 	stp	xzr, x0, [x6]
    80004040:	aa1303e0 	mov	x0, x19
    80004044:	f9400bf3 	ldr	x19, [sp, #16]
    80004048:	a8c27bfd 	ldp	x29, x30, [sp], #32
    8000404c:	d65f03c0 	ret
    80004050:	d2882ac0 	mov	x0, #0x4156                	// #16726
    80004054:	d285b5c1 	mov	x1, #0x2dae                	// #11694
    80004058:	f2bc5ec0 	movk	x0, #0xe2f6, lsl #16
    8000405c:	d29f0c62 	mov	x2, #0xf863                	// #63587
    80004060:	d2920b63 	mov	x3, #0x905b                	// #36955
    80004064:	f2bf7801 	movk	x1, #0xfbc0, lsl #16
    80004068:	f2a8fd02 	movk	x2, #0x47e8, lsl #16
    8000406c:	f2a211a3 	movk	x3, #0x108d, lsl #16
    80004070:	a90008c3 	stp	x3, x2, [x6]
    80004074:	a90100c1 	stp	x1, x0, [x6, #16]
    80004078:	aa1303e0 	mov	x0, x19
    8000407c:	f9400bf3 	ldr	x19, [sp, #16]
    80004080:	a8c27bfd 	ldp	x29, x30, [sp], #32
    80004084:	d65f03c0 	ret

0000000080004088 <cm_init>:
    80004088:	d65f03c0 	ret
    8000408c:	00000000 	.inst	0x00000000 ; undefined

0000000080004090 <cm_setup_context>:
    80004090:	a9bd7bfd 	stp	x29, x30, [sp, #-48]!
    80004094:	910003fd 	mov	x29, sp
    80004098:	a90153f3 	stp	x19, x20, [sp, #16]
    8000409c:	aa0103f4 	mov	x20, x1
    800040a0:	d2804601 	mov	x1, #0x230                 	// #560
    800040a4:	a9025bf5 	stp	x21, x22, [sp, #32]
    800040a8:	aa0003f5 	mov	x21, x0
    800040ac:	b9400696 	ldr	w22, [x20, #4]
    800040b0:	94000aa6 	bl	80006b48 <zeromem>
    800040b4:	120002d6 	and	w22, w22, #0x1
    800040b8:	d53e1100 	mrs	x0, scr_el3
    800040bc:	b9401284 	ldr	w4, [x20, #16]
    800040c0:	1281a0e2 	mov	w2, #0xfffff2f8            	// #-3336
    800040c4:	0a000042 	and	w2, w2, w0
    800040c8:	b9400681 	ldr	w1, [x20, #4]
    800040cc:	2a160042 	orr	w2, w2, w22
    800040d0:	2a1603e0 	mov	w0, w22
    800040d4:	32160043 	orr	w3, w2, #0x400
    800040d8:	f27c009f 	tst	x4, #0x10
    800040dc:	1a820062 	csel	w2, w3, w2, eq  // eq = none
    800040e0:	f27e003f 	tst	x1, #0x4
    800040e4:	32150041 	orr	w1, w2, #0x800
    800040e8:	1a821022 	csel	w2, w1, w2, ne  // ne = any
    800040ec:	121c7853 	and	w19, w2, #0xfffffff7
    800040f0:	97fffefa 	bl	80003cd8 <get_scr_el3_from_routing_model>
    800040f4:	2a000262 	orr	w2, w19, w0
    800040f8:	b9401283 	ldr	w3, [x20, #16]
    800040fc:	b9400681 	ldr	w1, [x20, #4]
    80004100:	36200363 	tbz	w3, #4, 8000416c <cm_setup_context+0xdc>
    80004104:	12000c60 	and	w0, w3, #0xf
    80004108:	53081c21 	lsl	w1, w1, #24
    8000410c:	7100281f 	cmp	w0, #0xa
    80004110:	12070021 	and	w1, w1, #0x2000000
    80004114:	32180040 	orr	w0, w2, #0x100
    80004118:	52810704 	mov	w4, #0x838                 	// #2104
    8000411c:	72a018a4 	movk	w4, #0xc5, lsl #16
    80004120:	9a820002 	csel	x2, x0, x2, eq  // eq = none
    80004124:	2a040021 	orr	w1, w1, w4
    80004128:	f900a2a1 	str	x1, [x21, #320]
    8000412c:	d5381020 	mrs	x0, actlr_el1
    80004130:	f900a6a0 	str	x0, [x21, #328]
    80004134:	35000076 	cbnz	w22, 80004140 <cm_setup_context+0xb0>
    80004138:	d2800c00 	mov	x0, #0x60                  	// #96
    8000413c:	f900f2a0 	str	x0, [x21, #480]
    80004140:	f9400681 	ldr	x1, [x20, #8]
    80004144:	2a0303e3 	mov	w3, w3
    80004148:	f90082a2 	str	x2, [x21, #256]
    8000414c:	aa1503e0 	mov	x0, x21
    80004150:	a91186a3 	stp	x3, x1, [x21, #280]
    80004154:	91006281 	add	x1, x20, #0x18
    80004158:	d2800802 	mov	x2, #0x40                  	// #64
    8000415c:	a94153f3 	ldp	x19, x20, [sp, #16]
    80004160:	a9425bf5 	ldp	x21, x22, [sp, #32]
    80004164:	a8c37bfd 	ldp	x29, x30, [sp], #48
    80004168:	14000abc 	b	80006c58 <memcpy>
    8000416c:	d3420c64 	ubfx	x4, x3, #2, #2
    80004170:	53081c21 	lsl	w1, w1, #24
    80004174:	7100089f 	cmp	w4, #0x2
    80004178:	12070021 	and	w1, w1, #0x2000000
    8000417c:	32180044 	orr	w4, w2, #0x100
    80004180:	52810000 	mov	w0, #0x800                 	// #2048
    80004184:	72a61a00 	movk	w0, #0x30d0, lsl #16
    80004188:	9a820082 	csel	x2, x4, x2, eq  // eq = none
    8000418c:	2a000021 	orr	w1, w1, w0
    80004190:	17ffffe6 	b	80004128 <cm_setup_context+0x98>
    80004194:	00000000 	.inst	0x00000000 ; undefined

0000000080004198 <cm_init_context_by_index>:
    80004198:	a9be7bfd 	stp	x29, x30, [sp, #-32]!
    8000419c:	910003fd 	mov	x29, sp
    800041a0:	f9000bf3 	str	x19, [sp, #16]
    800041a4:	aa0103f3 	mov	x19, x1
    800041a8:	b9400421 	ldr	w1, [x1, #4]
    800041ac:	12000021 	and	w1, w1, #0x1
    800041b0:	97fffee2 	bl	80003d38 <cm_get_context_by_index>
    800041b4:	aa1303e1 	mov	x1, x19
    800041b8:	f9400bf3 	ldr	x19, [sp, #16]
    800041bc:	a8c27bfd 	ldp	x29, x30, [sp], #32
    800041c0:	17ffffb4 	b	80004090 <cm_setup_context>
    800041c4:	00000000 	.inst	0x00000000 ; undefined

00000000800041c8 <cm_init_my_context>:
    800041c8:	a9be7bfd 	stp	x29, x30, [sp, #-32]!
    800041cc:	910003fd 	mov	x29, sp
    800041d0:	f9000bf3 	str	x19, [sp, #16]
    800041d4:	aa0003f3 	mov	x19, x0
    800041d8:	b9400400 	ldr	w0, [x0, #4]
    800041dc:	12000000 	and	w0, w0, #0x1
    800041e0:	97fffed2 	bl	80003d28 <cm_get_context>
    800041e4:	aa1303e1 	mov	x1, x19
    800041e8:	f9400bf3 	ldr	x19, [sp, #16]
    800041ec:	a8c27bfd 	ldp	x29, x30, [sp], #32
    800041f0:	17ffffa8 	b	80004090 <cm_setup_context>
    800041f4:	00000000 	.inst	0x00000000 ; undefined

00000000800041f8 <cm_el1_sysregs_context_restore>:
    800041f8:	a9be7bfd 	stp	x29, x30, [sp, #-32]!
    800041fc:	910003fd 	mov	x29, sp
    80004200:	a90153f3 	stp	x19, x20, [sp, #16]
    80004204:	2a0003f3 	mov	w19, w0
    80004208:	97fffec8 	bl	80003d28 <cm_get_context>
    8000420c:	9104c000 	add	x0, x0, #0x130
    80004210:	9400096b 	bl	800067bc <el1_sysregs_context_restore>
    80004214:	340002b3 	cbz	w19, 80004268 <cm_el1_sysregs_context_restore+0x70>
    80004218:	f0000014 	adrp	x20, 80007000 <vprintf+0x238>
    8000421c:	f0000000 	adrp	x0, 80007000 <vprintf+0x238>
    80004220:	91294281 	add	x1, x20, #0xa50
    80004224:	91296000 	add	x0, x0, #0xa58
    80004228:	eb00003f 	cmp	x1, x0
    8000422c:	54000182 	b.cs	8000425c <cm_el1_sysregs_context_restore+0x64>  // b.hs, b.nlast
    80004230:	d1000414 	sub	x20, x0, #0x1
    80004234:	aa0103f3 	mov	x19, x1
    80004238:	cb010294 	sub	x20, x20, x1
    8000423c:	927df294 	and	x20, x20, #0xfffffffffffffff8
    80004240:	91002294 	add	x20, x20, #0x8
    80004244:	8b010294 	add	x20, x20, x1
    80004248:	f8408661 	ldr	x1, [x19], #8
    8000424c:	d2800000 	mov	x0, #0x0                   	// #0
    80004250:	d63f0020 	blr	x1
    80004254:	eb14027f 	cmp	x19, x20
    80004258:	54ffff81 	b.ne	80004248 <cm_el1_sysregs_context_restore+0x50>  // b.any
    8000425c:	a94153f3 	ldp	x19, x20, [sp, #16]
    80004260:	a8c27bfd 	ldp	x29, x30, [sp], #32
    80004264:	d65f03c0 	ret
    80004268:	f0000014 	adrp	x20, 80007000 <vprintf+0x238>
    8000426c:	f0000000 	adrp	x0, 80007000 <vprintf+0x238>
    80004270:	91292281 	add	x1, x20, #0xa48
    80004274:	91294000 	add	x0, x0, #0xa50
    80004278:	eb00003f 	cmp	x1, x0
    8000427c:	54ffff02 	b.cs	8000425c <cm_el1_sysregs_context_restore+0x64>  // b.hs, b.nlast
    80004280:	d1000414 	sub	x20, x0, #0x1
    80004284:	aa0103f3 	mov	x19, x1
    80004288:	cb010294 	sub	x20, x20, x1
    8000428c:	927df294 	and	x20, x20, #0xfffffffffffffff8
    80004290:	91002294 	add	x20, x20, #0x8
    80004294:	8b010294 	add	x20, x20, x1
    80004298:	f8408661 	ldr	x1, [x19], #8
    8000429c:	d2800000 	mov	x0, #0x0                   	// #0
    800042a0:	d63f0020 	blr	x1
    800042a4:	eb13029f 	cmp	x20, x19
    800042a8:	54ffff81 	b.ne	80004298 <cm_el1_sysregs_context_restore+0xa0>  // b.any
    800042ac:	a94153f3 	ldp	x19, x20, [sp, #16]
    800042b0:	a8c27bfd 	ldp	x29, x30, [sp], #32
    800042b4:	d65f03c0 	ret

00000000800042b8 <cm_prepare_el3_exit>:
    800042b8:	a9be7bfd 	stp	x29, x30, [sp, #-32]!
    800042bc:	910003fd 	mov	x29, sp
    800042c0:	a90153f3 	stp	x19, x20, [sp, #16]
    800042c4:	2a0003f3 	mov	w19, w0
    800042c8:	97fffe98 	bl	80003d28 <cm_get_context>
    800042cc:	7100067f 	cmp	w19, #0x1
    800042d0:	54000160 	b.eq	800042fc <cm_prepare_el3_exit+0x44>  // b.none
    800042d4:	2a1303e0 	mov	w0, w19
    800042d8:	97ffffc8 	bl	800041f8 <cm_el1_sysregs_context_restore>
    800042dc:	2a1303e0 	mov	w0, w19
    800042e0:	97fffe92 	bl	80003d28 <cm_get_context>
    800042e4:	d50041bf 	msr	spsel, #0x1
    800042e8:	9100001f 	mov	sp, x0
    800042ec:	d50040bf 	msr	spsel, #0x0
    800042f0:	a94153f3 	ldp	x19, x20, [sp, #16]
    800042f4:	a8c27bfd 	ldp	x29, x30, [sp], #32
    800042f8:	d65f03c0 	ret
    800042fc:	f9408001 	ldr	x1, [x0, #256]
    80004300:	374003c1 	tbnz	w1, #8, 80004378 <cm_prepare_el3_exit+0xc0>
    80004304:	d5380400 	mrs	x0, id_aa64pfr0_el1
    80004308:	52800014 	mov	w20, #0x0                   	// #0
    8000430c:	f2780c1f 	tst	x0, #0xf00
    80004310:	540002a0 	b.eq	80004364 <cm_prepare_el3_exit+0xac>  // b.none
    80004314:	d36ba821 	lsl	x1, x1, #21
    80004318:	92610021 	and	x1, x1, #0x80000000
    8000431c:	d51c1101 	msr	hcr_el2, x1
    80004320:	d2867fe0 	mov	x0, #0x33ff                	// #13311
    80004324:	d51c1140 	msr	cptr_el2, x0
    80004328:	d2800060 	mov	x0, #0x3                   	// #3
    8000432c:	d51ce100 	msr	cnthctl_el2, x0
    80004330:	d2800000 	mov	x0, #0x0                   	// #0
    80004334:	d51ce060 	msr	cntvoff_el2, x0
    80004338:	d5380001 	mrs	x1, midr_el1
    8000433c:	d51c0001 	msr	vpidr_el2, x1
    80004340:	d53800a1 	mrs	x1, mpidr_el1
    80004344:	d51c00a1 	msr	vmpidr_el2, x1
    80004348:	d51c2100 	msr	vttbr_el2, x0
    8000434c:	d53b9c01 	mrs	x1, pmcr_el0
    80004350:	d34b3c21 	ubfx	x1, x1, #11, #5
    80004354:	d51c1121 	msr	mdcr_el2, x1
    80004358:	d51c1160 	msr	hstr_el2, x0
    8000435c:	d51ce220 	msr	cnthp_ctl_el2, x0
    80004360:	2a1303f4 	mov	w20, w19
    80004364:	2a1403e0 	mov	w0, w20
    80004368:	940006d0 	bl	80005ea8 <spe_enable>
    8000436c:	2a1403e0 	mov	w0, w20
    80004370:	940006f8 	bl	80005f50 <sve_enable>
    80004374:	17ffffd8 	b	800042d4 <cm_prepare_el3_exit+0x1c>
    80004378:	f940a000 	ldr	x0, [x0, #320]
    8000437c:	52810601 	mov	w1, #0x830                 	// #2096
    80004380:	72a618a1 	movk	w1, #0x30c5, lsl #16
    80004384:	12070000 	and	w0, w0, #0x2000000
    80004388:	2a010000 	orr	w0, w0, w1
    8000438c:	d51c1000 	msr	sctlr_el2, x0
    80004390:	52800014 	mov	w20, #0x0                   	// #0
    80004394:	17fffff4 	b	80004364 <cm_prepare_el3_exit+0xac>

0000000080004398 <psci_do_cpu_off>:
    80004398:	a9bc7bfd 	stp	x29, x30, [sp, #-64]!
    8000439c:	910003fd 	mov	x29, sp
    800043a0:	a90153f3 	stp	x19, x20, [sp, #16]
    800043a4:	2a0003f3 	mov	w19, w0
    800043a8:	f90013f5 	str	x21, [sp, #32]
    800043ac:	9400074a 	bl	800060d4 <plat_my_core_pos>
    800043b0:	52804043 	mov	w3, #0x202                 	// #514
    800043b4:	52800042 	mov	w2, #0x2                   	// #2
    800043b8:	2a0003f4 	mov	w20, w0
    800043bc:	2a1303e0 	mov	w0, w19
    800043c0:	2a1403e1 	mov	w1, w20
    800043c4:	790073e3 	strh	w3, [sp, #56]
    800043c8:	3900ebe2 	strb	w2, [sp, #58]
    800043cc:	94000277 	bl	80004da8 <psci_acquire_pwr_domain_locks>
    800043d0:	d0000040 	adrp	x0, 8000e000 <psci_ns_context+0xb20>
    800043d4:	f9425400 	ldr	x0, [x0, #1192]
    800043d8:	b40000e0 	cbz	x0, 800043f4 <psci_do_cpu_off+0x5c>
    800043dc:	f9400401 	ldr	x1, [x0, #8]
    800043e0:	b40000a1 	cbz	x1, 800043f4 <psci_do_cpu_off+0x5c>
    800043e4:	d2800000 	mov	x0, #0x0                   	// #0
    800043e8:	d63f0020 	blr	x1
    800043ec:	2a0003f5 	mov	w21, w0
    800043f0:	35000400 	cbnz	w0, 80004470 <psci_do_cpu_off+0xd8>
    800043f4:	9100e3e1 	add	x1, sp, #0x38
    800043f8:	2a1303e0 	mov	w0, w19
    800043fc:	d0000055 	adrp	x21, 8000e000 <psci_ns_context+0xb20>
    80004400:	940001f0 	bl	80004bc0 <psci_do_state_coordination>
    80004404:	9100e3e0 	add	x0, sp, #0x38
    80004408:	9400024a 	bl	80004d30 <psci_find_max_off_lvl>
    8000440c:	94000351 	bl	80005150 <psci_do_pwrdown_sequence>
    80004410:	f94252a1 	ldr	x1, [x21, #1184]
    80004414:	9100e3e0 	add	x0, sp, #0x38
    80004418:	f9400821 	ldr	x1, [x1, #16]
    8000441c:	d63f0020 	blr	x1
    80004420:	2a1403e1 	mov	w1, w20
    80004424:	2a1303e0 	mov	w0, w19
    80004428:	94000280 	bl	80004e28 <psci_release_pwr_domain_locks>
    8000442c:	d53ed040 	mrs	x0, tpidr_el3
    80004430:	d2800081 	mov	x1, #0x4                   	// #4
    80004434:	91006000 	add	x0, x0, #0x18
    80004438:	9400095b 	bl	800069a4 <flush_dcache_range>
    8000443c:	d53ed040 	mrs	x0, tpidr_el3
    80004440:	52800021 	mov	w1, #0x1                   	// #1
    80004444:	b9001801 	str	w1, [x0, #24]
    80004448:	d5033b9f 	dsb	ish
    8000444c:	d53ed040 	mrs	x0, tpidr_el3
    80004450:	d2800081 	mov	x1, #0x4                   	// #4
    80004454:	91006000 	add	x0, x0, #0x18
    80004458:	9400096f 	bl	80006a14 <inv_dcache_range>
    8000445c:	f94252a0 	ldr	x0, [x21, #1184]
    80004460:	f9401c01 	ldr	x1, [x0, #56]
    80004464:	b4000161 	cbz	x1, 80004490 <psci_do_cpu_off+0xf8>
    80004468:	9100e3e0 	add	x0, sp, #0x38
    8000446c:	d63f0020 	blr	x1
    80004470:	2a1403e1 	mov	w1, w20
    80004474:	2a1303e0 	mov	w0, w19
    80004478:	9400026c 	bl	80004e28 <psci_release_pwr_domain_locks>
    8000447c:	2a1503e0 	mov	w0, w21
    80004480:	a94153f3 	ldp	x19, x20, [sp, #16]
    80004484:	f94013f5 	ldr	x21, [sp, #32]
    80004488:	a8c47bfd 	ldp	x29, x30, [sp], #64
    8000448c:	d65f03c0 	ret
    80004490:	940008c8 	bl	800067b0 <psci_power_down_wfi>
    80004494:	00000000 	.inst	0x00000000 ; undefined

0000000080004498 <psci_cpu_on_start>:
    80004498:	a9bc7bfd 	stp	x29, x30, [sp, #-64]!
    8000449c:	910003fd 	mov	x29, sp
    800044a0:	a90153f3 	stp	x19, x20, [sp, #16]
    800044a4:	d2800194 	mov	x20, #0xc                   	// #12
    800044a8:	a9025bf5 	stp	x21, x22, [sp, #32]
    800044ac:	aa0103f6 	mov	x22, x1
    800044b0:	aa0003f5 	mov	x21, x0
    800044b4:	97fff381 	bl	800012b8 <plat_core_pos_by_mpidr>
    800044b8:	8b20d294 	add	x20, x20, w0, sxtw #4
    800044bc:	d0000042 	adrp	x2, 8000e000 <psci_ns_context+0xb20>
    800044c0:	91110042 	add	x2, x2, #0x440
    800044c4:	8b020294 	add	x20, x20, x2
    800044c8:	2a0003f3 	mov	w19, w0
    800044cc:	aa1403e0 	mov	x0, x20
    800044d0:	94000892 	bl	80006718 <spin_lock>
    800044d4:	2a1303e0 	mov	w0, w19
    800044d8:	9400084d 	bl	8000660c <_cpu_data_by_index>
    800044dc:	d2800081 	mov	x1, #0x4                   	// #4
    800044e0:	91006000 	add	x0, x0, #0x18
    800044e4:	94000930 	bl	800069a4 <flush_dcache_range>
    800044e8:	2a1303e0 	mov	w0, w19
    800044ec:	94000848 	bl	8000660c <_cpu_data_by_index>
    800044f0:	b9401800 	ldr	w0, [x0, #24]
    800044f4:	340008e0 	cbz	w0, 80004610 <psci_cpu_on_start+0x178>
    800044f8:	7100081f 	cmp	w0, #0x2
    800044fc:	540008e0 	b.eq	80004618 <psci_cpu_on_start+0x180>  // b.none
    80004500:	d0000040 	adrp	x0, 8000e000 <psci_ns_context+0xb20>
    80004504:	f9001bf7 	str	x23, [sp, #48]
    80004508:	f9425400 	ldr	x0, [x0, #1192]
    8000450c:	b40000a0 	cbz	x0, 80004520 <psci_cpu_on_start+0x88>
    80004510:	f9400001 	ldr	x1, [x0]
    80004514:	b4000061 	cbz	x1, 80004520 <psci_cpu_on_start+0x88>
    80004518:	aa1503e0 	mov	x0, x21
    8000451c:	d63f0020 	blr	x1
    80004520:	2a1303e0 	mov	w0, w19
    80004524:	9400083a 	bl	8000660c <_cpu_data_by_index>
    80004528:	aa0003e1 	mov	x1, x0
    8000452c:	52800057 	mov	w23, #0x2                   	// #2
    80004530:	2a1303e0 	mov	w0, w19
    80004534:	b9001837 	str	w23, [x1, #24]
    80004538:	94000835 	bl	8000660c <_cpu_data_by_index>
    8000453c:	91006000 	add	x0, x0, #0x18
    80004540:	d2800081 	mov	x1, #0x4                   	// #4
    80004544:	94000918 	bl	800069a4 <flush_dcache_range>
    80004548:	2a1303e0 	mov	w0, w19
    8000454c:	94000830 	bl	8000660c <_cpu_data_by_index>
    80004550:	b9401800 	ldr	w0, [x0, #24]
    80004554:	6b17001f 	cmp	w0, w23
    80004558:	54000140 	b.eq	80004580 <psci_cpu_on_start+0xe8>  // b.none
    8000455c:	2a1303e0 	mov	w0, w19
    80004560:	9400082b 	bl	8000660c <_cpu_data_by_index>
    80004564:	aa0003e1 	mov	x1, x0
    80004568:	2a1303e0 	mov	w0, w19
    8000456c:	b9001837 	str	w23, [x1, #24]
    80004570:	94000827 	bl	8000660c <_cpu_data_by_index>
    80004574:	91006000 	add	x0, x0, #0x18
    80004578:	d2800081 	mov	x1, #0x4                   	// #4
    8000457c:	9400090a 	bl	800069a4 <flush_dcache_range>
    80004580:	d0000041 	adrp	x1, 8000e000 <psci_ns_context+0xb20>
    80004584:	aa1503e0 	mov	x0, x21
    80004588:	f9425021 	ldr	x1, [x1, #1184]
    8000458c:	f9400421 	ldr	x1, [x1, #8]
    80004590:	d63f0020 	blr	x1
    80004594:	2a0003f5 	mov	w21, w0
    80004598:	34000260 	cbz	w0, 800045e4 <psci_cpu_on_start+0x14c>
    8000459c:	2a1303e0 	mov	w0, w19
    800045a0:	9400081b 	bl	8000660c <_cpu_data_by_index>
    800045a4:	aa0003e1 	mov	x1, x0
    800045a8:	52800022 	mov	w2, #0x1                   	// #1
    800045ac:	2a1303e0 	mov	w0, w19
    800045b0:	b9001822 	str	w2, [x1, #24]
    800045b4:	94000816 	bl	8000660c <_cpu_data_by_index>
    800045b8:	91006000 	add	x0, x0, #0x18
    800045bc:	d2800081 	mov	x1, #0x4                   	// #4
    800045c0:	940008f9 	bl	800069a4 <flush_dcache_range>
    800045c4:	f9401bf7 	ldr	x23, [sp, #48]
    800045c8:	aa1403e0 	mov	x0, x20
    800045cc:	9400085b 	bl	80006738 <spin_unlock>
    800045d0:	2a1503e0 	mov	w0, w21
    800045d4:	a94153f3 	ldp	x19, x20, [sp, #16]
    800045d8:	a9425bf5 	ldp	x21, x22, [sp, #32]
    800045dc:	a8c47bfd 	ldp	x29, x30, [sp], #64
    800045e0:	d65f03c0 	ret
    800045e4:	aa1603e1 	mov	x1, x22
    800045e8:	2a1303e0 	mov	w0, w19
    800045ec:	97fffeeb 	bl	80004198 <cm_init_context_by_index>
    800045f0:	aa1403e0 	mov	x0, x20
    800045f4:	f9401bf7 	ldr	x23, [sp, #48]
    800045f8:	94000850 	bl	80006738 <spin_unlock>
    800045fc:	2a1503e0 	mov	w0, w21
    80004600:	a94153f3 	ldp	x19, x20, [sp, #16]
    80004604:	a9425bf5 	ldp	x21, x22, [sp, #32]
    80004608:	a8c47bfd 	ldp	x29, x30, [sp], #64
    8000460c:	d65f03c0 	ret
    80004610:	12800075 	mov	w21, #0xfffffffc            	// #-4
    80004614:	17ffffed 	b	800045c8 <psci_cpu_on_start+0x130>
    80004618:	12800095 	mov	w21, #0xfffffffb            	// #-5
    8000461c:	17ffffeb 	b	800045c8 <psci_cpu_on_start+0x130>

0000000080004620 <psci_cpu_on_finish>:
    80004620:	a9bd7bfd 	stp	x29, x30, [sp, #-48]!
    80004624:	d0000042 	adrp	x2, 8000e000 <psci_ns_context+0xb20>
    80004628:	910003fd 	mov	x29, sp
    8000462c:	a9025bf5 	stp	x21, x22, [sp, #32]
    80004630:	2a0003f5 	mov	w21, w0
    80004634:	aa0103e0 	mov	x0, x1
    80004638:	f9425041 	ldr	x1, [x2, #1184]
    8000463c:	a90153f3 	stp	x19, x20, [sp, #16]
    80004640:	d2800193 	mov	x19, #0xc                   	// #12
    80004644:	8b35d273 	add	x19, x19, w21, sxtw #4
    80004648:	d0000056 	adrp	x22, 8000e000 <psci_ns_context+0xb20>
    8000464c:	f9401421 	ldr	x1, [x1, #40]
    80004650:	911102d6 	add	x22, x22, #0x440
    80004654:	8b1302d3 	add	x19, x22, x19
    80004658:	d63f0020 	blr	x1
    8000465c:	94000848 	bl	8000677c <psci_do_pwrup_cache_maintenance>
    80004660:	94000548 	bl	80005b80 <psci_arch_setup>
    80004664:	aa1303e0 	mov	x0, x19
    80004668:	9400082c 	bl	80006718 <spin_lock>
    8000466c:	aa1303e0 	mov	x0, x19
    80004670:	94000832 	bl	80006738 <spin_unlock>
    80004674:	d0000040 	adrp	x0, 8000e000 <psci_ns_context+0xb20>
    80004678:	f9425400 	ldr	x0, [x0, #1192]
    8000467c:	b40000a0 	cbz	x0, 80004690 <psci_cpu_on_finish+0x70>
    80004680:	f9400c01 	ldr	x1, [x0, #24]
    80004684:	b4000061 	cbz	x1, 80004690 <psci_cpu_on_finish+0x70>
    80004688:	d2800000 	mov	x0, #0x0                   	// #0
    8000468c:	d63f0020 	blr	x1
    80004690:	f0000014 	adrp	x20, 80007000 <vprintf+0x238>
    80004694:	f0000001 	adrp	x1, 80007000 <vprintf+0x238>
    80004698:	91292280 	add	x0, x20, #0xa48
    8000469c:	91292021 	add	x1, x1, #0xa48
    800046a0:	eb01001f 	cmp	x0, x1
    800046a4:	54000182 	b.cs	800046d4 <psci_cpu_on_finish+0xb4>  // b.hs, b.nlast
    800046a8:	d1000434 	sub	x20, x1, #0x1
    800046ac:	aa0003f3 	mov	x19, x0
    800046b0:	cb000294 	sub	x20, x20, x0
    800046b4:	927df294 	and	x20, x20, #0xfffffffffffffff8
    800046b8:	91002294 	add	x20, x20, #0x8
    800046bc:	8b000294 	add	x20, x20, x0
    800046c0:	f8408661 	ldr	x1, [x19], #8
    800046c4:	d2800000 	mov	x0, #0x0                   	// #0
    800046c8:	d63f0020 	blr	x1
    800046cc:	eb14027f 	cmp	x19, x20
    800046d0:	54ffff81 	b.ne	800046c0 <psci_cpu_on_finish+0xa0>  // b.any
    800046d4:	d53800a1 	mrs	x1, mpidr_el1
    800046d8:	937c7eb5 	sbfiz	x21, x21, #4, #32
    800046dc:	92409c21 	and	x1, x1, #0xffffffffff
    800046e0:	9260dc21 	and	x1, x1, #0xffffffff00ffffff
    800046e4:	52800020 	mov	w0, #0x1                   	// #1
    800046e8:	a94153f3 	ldp	x19, x20, [sp, #16]
    800046ec:	f8356ac1 	str	x1, [x22, x21]
    800046f0:	a9425bf5 	ldp	x21, x22, [sp, #32]
    800046f4:	a8c37bfd 	ldp	x29, x30, [sp], #48
    800046f8:	17fffef0 	b	800042b8 <cm_prepare_el3_exit>
    800046fc:	00000000 	.inst	0x00000000 ; undefined

0000000080004700 <psci_cpu_suspend_start>:
    80004700:	a9ba7bfd 	stp	x29, x30, [sp, #-96]!
    80004704:	910003fd 	mov	x29, sp
    80004708:	a90153f3 	stp	x19, x20, [sp, #16]
    8000470c:	2a0103f3 	mov	w19, w1
    80004710:	a9025bf5 	stp	x21, x22, [sp, #32]
    80004714:	aa0203f5 	mov	x21, x2
    80004718:	aa0003f6 	mov	x22, x0
    8000471c:	a90363f7 	stp	x23, x24, [sp, #48]
    80004720:	2a0303f7 	mov	w23, w3
    80004724:	9400066c 	bl	800060d4 <plat_my_core_pos>
    80004728:	2a0003f4 	mov	w20, w0
    8000472c:	2a1303e0 	mov	w0, w19
    80004730:	2a1403e1 	mov	w1, w20
    80004734:	9400019d 	bl	80004da8 <psci_acquire_pwr_domain_locks>
    80004738:	d538c100 	mrs	x0, isr_el1
    8000473c:	b4000120 	cbz	x0, 80004760 <psci_cpu_suspend_start+0x60>
    80004740:	2a1403e1 	mov	w1, w20
    80004744:	2a1303e0 	mov	w0, w19
    80004748:	940001b8 	bl	80004e28 <psci_release_pwr_domain_locks>
    8000474c:	a94153f3 	ldp	x19, x20, [sp, #16]
    80004750:	a9425bf5 	ldp	x21, x22, [sp, #32]
    80004754:	a94363f7 	ldp	x23, x24, [sp, #48]
    80004758:	a8c67bfd 	ldp	x29, x30, [sp], #96
    8000475c:	d65f03c0 	ret
    80004760:	aa1503e1 	mov	x1, x21
    80004764:	2a1303e0 	mov	w0, w19
    80004768:	94000116 	bl	80004bc0 <psci_do_state_coordination>
    8000476c:	350003d7 	cbnz	w23, 800047e4 <psci_cpu_suspend_start+0xe4>
    80004770:	d0000056 	adrp	x22, 8000e000 <psci_ns_context+0xb20>
    80004774:	aa1503e0 	mov	x0, x21
    80004778:	f94252c1 	ldr	x1, [x22, #1184]
    8000477c:	f9401021 	ldr	x1, [x1, #32]
    80004780:	d63f0020 	blr	x1
    80004784:	2a1403e1 	mov	w1, w20
    80004788:	2a1303e0 	mov	w0, w19
    8000478c:	940001a7 	bl	80004e28 <psci_release_pwr_domain_locks>
    80004790:	d503207f 	wfi
    80004794:	2a1403e1 	mov	w1, w20
    80004798:	2a1303e0 	mov	w0, w19
    8000479c:	94000183 	bl	80004da8 <psci_acquire_pwr_domain_locks>
    800047a0:	910163e1 	add	x1, sp, #0x58
    800047a4:	2a1303e0 	mov	w0, w19
    800047a8:	940000ac 	bl	80004a58 <psci_get_target_local_pwr_states>
    800047ac:	f94252c1 	ldr	x1, [x22, #1184]
    800047b0:	910163e0 	add	x0, sp, #0x58
    800047b4:	f9401821 	ldr	x1, [x1, #48]
    800047b8:	d63f0020 	blr	x1
    800047bc:	2a1303e0 	mov	w0, w19
    800047c0:	940000dc 	bl	80004b30 <psci_set_pwr_domains_to_run>
    800047c4:	2a1403e1 	mov	w1, w20
    800047c8:	2a1303e0 	mov	w0, w19
    800047cc:	94000197 	bl	80004e28 <psci_release_pwr_domain_locks>
    800047d0:	a94153f3 	ldp	x19, x20, [sp, #16]
    800047d4:	a9425bf5 	ldp	x21, x22, [sp, #32]
    800047d8:	a94363f7 	ldp	x23, x24, [sp, #48]
    800047dc:	a8c67bfd 	ldp	x29, x30, [sp], #96
    800047e0:	d65f03c0 	ret
    800047e4:	aa1503e0 	mov	x0, x21
    800047e8:	f90023f9 	str	x25, [sp, #64]
    800047ec:	94000151 	bl	80004d30 <psci_find_max_off_lvl>
    800047f0:	f0000018 	adrp	x24, 80007000 <vprintf+0x238>
    800047f4:	f0000001 	adrp	x1, 80007000 <vprintf+0x238>
    800047f8:	91292302 	add	x2, x24, #0xa48
    800047fc:	91292021 	add	x1, x1, #0xa48
    80004800:	2a0003f9 	mov	w25, w0
    80004804:	eb01005f 	cmp	x2, x1
    80004808:	540001a2 	b.cs	8000483c <psci_cpu_suspend_start+0x13c>  // b.hs, b.nlast
    8000480c:	d1000438 	sub	x24, x1, #0x1
    80004810:	aa0203f7 	mov	x23, x2
    80004814:	cb020318 	sub	x24, x24, x2
    80004818:	927df318 	and	x24, x24, #0xfffffffffffffff8
    8000481c:	91002318 	add	x24, x24, #0x8
    80004820:	8b020318 	add	x24, x24, x2
    80004824:	d503201f 	nop
    80004828:	f84086e1 	ldr	x1, [x23], #8
    8000482c:	d2800000 	mov	x0, #0x0                   	// #0
    80004830:	d63f0020 	blr	x1
    80004834:	eb1802ff 	cmp	x23, x24
    80004838:	54ffff81 	b.ne	80004828 <psci_cpu_suspend_start+0x128>  // b.any
    8000483c:	d53ed040 	mrs	x0, tpidr_el3
    80004840:	b9001c13 	str	w19, [x0, #28]
    80004844:	d53ed040 	mrs	x0, tpidr_el3
    80004848:	d2800081 	mov	x1, #0x4                   	// #4
    8000484c:	91007000 	add	x0, x0, #0x1c
    80004850:	94000855 	bl	800069a4 <flush_dcache_range>
    80004854:	d0000040 	adrp	x0, 8000e000 <psci_ns_context+0xb20>
    80004858:	f9425400 	ldr	x0, [x0, #1192]
    8000485c:	b40000a0 	cbz	x0, 80004870 <psci_cpu_suspend_start+0x170>
    80004860:	f9400801 	ldr	x1, [x0, #16]
    80004864:	b4000061 	cbz	x1, 80004870 <psci_cpu_suspend_start+0x170>
    80004868:	2a1903e0 	mov	w0, w25
    8000486c:	d63f0020 	blr	x1
    80004870:	d0000057 	adrp	x23, 8000e000 <psci_ns_context+0xb20>
    80004874:	f94252e0 	ldr	x0, [x23, #1184]
    80004878:	f9400c01 	ldr	x1, [x0, #24]
    8000487c:	b4000061 	cbz	x1, 80004888 <psci_cpu_suspend_start+0x188>
    80004880:	aa1503e0 	mov	x0, x21
    80004884:	d63f0020 	blr	x1
    80004888:	aa1603e0 	mov	x0, x22
    8000488c:	97fffe4f 	bl	800041c8 <cm_init_my_context>
    80004890:	2a1903e0 	mov	w0, w25
    80004894:	9400022f 	bl	80005150 <psci_do_pwrdown_sequence>
    80004898:	f94252e1 	ldr	x1, [x23, #1184]
    8000489c:	aa1503e0 	mov	x0, x21
    800048a0:	f9401021 	ldr	x1, [x1, #32]
    800048a4:	d63f0020 	blr	x1
    800048a8:	2a1403e1 	mov	w1, w20
    800048ac:	2a1303e0 	mov	w0, w19
    800048b0:	9400015e 	bl	80004e28 <psci_release_pwr_domain_locks>
    800048b4:	f94252e0 	ldr	x0, [x23, #1184]
    800048b8:	f9401c01 	ldr	x1, [x0, #56]
    800048bc:	b4000061 	cbz	x1, 800048c8 <psci_cpu_suspend_start+0x1c8>
    800048c0:	aa1503e0 	mov	x0, x21
    800048c4:	d63f0020 	blr	x1
    800048c8:	940007ba 	bl	800067b0 <psci_power_down_wfi>
    800048cc:	00000000 	.inst	0x00000000 ; undefined

00000000800048d0 <psci_cpu_suspend_finish>:
    800048d0:	a9be7bfd 	stp	x29, x30, [sp, #-32]!
    800048d4:	d0000040 	adrp	x0, 8000e000 <psci_ns_context+0xb20>
    800048d8:	910003fd 	mov	x29, sp
    800048dc:	a90153f3 	stp	x19, x20, [sp, #16]
    800048e0:	aa0103f3 	mov	x19, x1
    800048e4:	f9425001 	ldr	x1, [x0, #1184]
    800048e8:	aa1303e0 	mov	x0, x19
    800048ec:	f9401821 	ldr	x1, [x1, #48]
    800048f0:	d63f0020 	blr	x1
    800048f4:	940007a2 	bl	8000677c <psci_do_pwrup_cache_maintenance>
    800048f8:	97fff04a 	bl	80000a20 <plat_get_syscnt_freq2>
    800048fc:	2a0003e0 	mov	w0, w0
    80004900:	d51be000 	msr	cntfrq_el0, x0
    80004904:	d0000054 	adrp	x20, 8000e000 <psci_ns_context+0xb20>
    80004908:	f9425680 	ldr	x0, [x20, #1192]
    8000490c:	b4000120 	cbz	x0, 80004930 <psci_cpu_suspend_finish+0x60>
    80004910:	f9401000 	ldr	x0, [x0, #32]
    80004914:	b40000e0 	cbz	x0, 80004930 <psci_cpu_suspend_finish+0x60>
    80004918:	aa1303e0 	mov	x0, x19
    8000491c:	94000105 	bl	80004d30 <psci_find_max_off_lvl>
    80004920:	f9425681 	ldr	x1, [x20, #1192]
    80004924:	2a0003e0 	mov	w0, w0
    80004928:	f9401021 	ldr	x1, [x1, #32]
    8000492c:	d63f0020 	blr	x1
    80004930:	d53ed040 	mrs	x0, tpidr_el3
    80004934:	52800061 	mov	w1, #0x3                   	// #3
    80004938:	b9001c01 	str	w1, [x0, #28]
    8000493c:	f0000014 	adrp	x20, 80007000 <vprintf+0x238>
    80004940:	f0000000 	adrp	x0, 80007000 <vprintf+0x238>
    80004944:	91292281 	add	x1, x20, #0xa48
    80004948:	91292000 	add	x0, x0, #0xa48
    8000494c:	eb00003f 	cmp	x1, x0
    80004950:	540001a2 	b.cs	80004984 <psci_cpu_suspend_finish+0xb4>  // b.hs, b.nlast
    80004954:	d1000414 	sub	x20, x0, #0x1
    80004958:	aa0103f3 	mov	x19, x1
    8000495c:	cb010294 	sub	x20, x20, x1
    80004960:	927df294 	and	x20, x20, #0xfffffffffffffff8
    80004964:	91002294 	add	x20, x20, #0x8
    80004968:	8b010294 	add	x20, x20, x1
    8000496c:	d503201f 	nop
    80004970:	f8408661 	ldr	x1, [x19], #8
    80004974:	d2800000 	mov	x0, #0x0                   	// #0
    80004978:	d63f0020 	blr	x1
    8000497c:	eb14027f 	cmp	x19, x20
    80004980:	54ffff81 	b.ne	80004970 <psci_cpu_suspend_finish+0xa0>  // b.any
    80004984:	a94153f3 	ldp	x19, x20, [sp, #16]
    80004988:	52800020 	mov	w0, #0x1                   	// #1
    8000498c:	a8c27bfd 	ldp	x29, x30, [sp], #32
    80004990:	17fffe4a 	b	800042b8 <cm_prepare_el3_exit>
    80004994:	00000000 	.inst	0x00000000 ; undefined

0000000080004998 <psci_validate_power_state>:
    80004998:	52bf9fc2 	mov	w2, #0xfcfe0000            	// #-50462720
    8000499c:	6a02001f 	tst	w0, w2
    800049a0:	540000c1 	b.ne	800049b8 <psci_validate_power_state+0x20>  // b.any
    800049a4:	d0000042 	adrp	x2, 8000e000 <psci_ns_context+0xb20>
    800049a8:	f9425042 	ldr	x2, [x2, #1184]
    800049ac:	f9402842 	ldr	x2, [x2, #80]
    800049b0:	aa0203f0 	mov	x16, x2
    800049b4:	d61f0200 	br	x16
    800049b8:	12800020 	mov	w0, #0xfffffffe            	// #-2
    800049bc:	d65f03c0 	ret

00000000800049c0 <psci_query_sys_suspend_pwrstate>:
    800049c0:	d0000041 	adrp	x1, 8000e000 <psci_ns_context+0xb20>
    800049c4:	f9425021 	ldr	x1, [x1, #1184]
    800049c8:	f9403021 	ldr	x1, [x1, #96]
    800049cc:	aa0103f0 	mov	x16, x1
    800049d0:	d61f0200 	br	x16
    800049d4:	00000000 	.inst	0x00000000 ; undefined

00000000800049d8 <psci_is_last_on_cpu>:
    800049d8:	a9be7bfd 	stp	x29, x30, [sp, #-32]!
    800049dc:	910003fd 	mov	x29, sp
    800049e0:	a90153f3 	stp	x19, x20, [sp, #16]
    800049e4:	940005bc 	bl	800060d4 <plat_my_core_pos>
    800049e8:	2a0003f4 	mov	w20, w0
    800049ec:	52800013 	mov	w19, #0x0                   	// #0
    800049f0:	2a1303e0 	mov	w0, w19
    800049f4:	6b13029f 	cmp	w20, w19
    800049f8:	11000673 	add	w19, w19, #0x1
    800049fc:	540000a0 	b.eq	80004a10 <psci_is_last_on_cpu+0x38>  // b.none
    80004a00:	94000703 	bl	8000660c <_cpu_data_by_index>
    80004a04:	b9401800 	ldr	w0, [x0, #24]
    80004a08:	7100041f 	cmp	w0, #0x1
    80004a0c:	540000e1 	b.ne	80004a28 <psci_is_last_on_cpu+0x50>  // b.any
    80004a10:	71001a7f 	cmp	w19, #0x6
    80004a14:	54fffee1 	b.ne	800049f0 <psci_is_last_on_cpu+0x18>  // b.any
    80004a18:	52800020 	mov	w0, #0x1                   	// #1
    80004a1c:	a94153f3 	ldp	x19, x20, [sp, #16]
    80004a20:	a8c27bfd 	ldp	x29, x30, [sp], #32
    80004a24:	d65f03c0 	ret
    80004a28:	52800000 	mov	w0, #0x0                   	// #0
    80004a2c:	a94153f3 	ldp	x19, x20, [sp, #16]
    80004a30:	a8c27bfd 	ldp	x29, x30, [sp], #32
    80004a34:	d65f03c0 	ret

0000000080004a38 <psci_init_req_local_pwr_states>:
    80004a38:	b0000040 	adrp	x0, 8000d000 <imx_gicv3_ctx+0x26c0>
    80004a3c:	91134001 	add	x1, x0, #0x4d0
    80004a40:	b207c3e3 	mov	x3, #0x202020202020202     	// #144680345676153346
    80004a44:	3207c3e2 	mov	w2, #0x2020202             	// #33686018
    80004a48:	f9026803 	str	x3, [x0, #1232]
    80004a4c:	b9000822 	str	w2, [x1, #8]
    80004a50:	d65f03c0 	ret
    80004a54:	00000000 	.inst	0x00000000 ; undefined

0000000080004a58 <psci_get_target_local_pwr_states>:
    80004a58:	a9be7bfd 	stp	x29, x30, [sp, #-32]!
    80004a5c:	910003fd 	mov	x29, sp
    80004a60:	a90153f3 	stp	x19, x20, [sp, #16]
    80004a64:	2a0003f4 	mov	w20, w0
    80004a68:	aa0103f3 	mov	x19, x1
    80004a6c:	d53ed040 	mrs	x0, tpidr_el3
    80004a70:	39408000 	ldrb	w0, [x0, #32]
    80004a74:	39000020 	strb	w0, [x1]
    80004a78:	94000597 	bl	800060d4 <plat_my_core_pos>
    80004a7c:	d37c7c00 	ubfiz	x0, x0, #4, #32
    80004a80:	d0000041 	adrp	x1, 8000e000 <psci_ns_context+0xb20>
    80004a84:	91110021 	add	x1, x1, #0x440
    80004a88:	8b000021 	add	x1, x1, x0
    80004a8c:	b9400822 	ldr	w2, [x1, #8]
    80004a90:	340002b4 	cbz	w20, 80004ae4 <psci_get_target_local_pwr_states+0x8c>
    80004a94:	f0000080 	adrp	x0, 80017000 <sc_ipc_bakery_lock>
    80004a98:	91016000 	add	x0, x0, #0x58
    80004a9c:	52800023 	mov	w3, #0x1                   	// #1
    80004aa0:	d37c7c42 	ubfiz	x2, x2, #4, #32
    80004aa4:	8b020002 	add	x2, x0, x2
    80004aa8:	39403044 	ldrb	w4, [x2, #12]
    80004aac:	38234a64 	strb	w4, [x19, w3, uxtw]
    80004ab0:	11000463 	add	w3, w3, #0x1
    80004ab4:	6b03029f 	cmp	w20, w3
    80004ab8:	b9400842 	ldr	w2, [x2, #8]
    80004abc:	54ffff22 	b.cs	80004aa0 <psci_get_target_local_pwr_states+0x48>  // b.hs, b.nlast
    80004ac0:	7100087f 	cmp	w3, #0x2
    80004ac4:	540000a8 	b.hi	80004ad8 <psci_get_target_local_pwr_states+0x80>  // b.pmore
    80004ac8:	38234a7f 	strb	wzr, [x19, w3, uxtw]
    80004acc:	11000463 	add	w3, w3, #0x1
    80004ad0:	71000c7f 	cmp	w3, #0x3
    80004ad4:	54ffffa1 	b.ne	80004ac8 <psci_get_target_local_pwr_states+0x70>  // b.any
    80004ad8:	a94153f3 	ldp	x19, x20, [sp, #16]
    80004adc:	a8c27bfd 	ldp	x29, x30, [sp], #32
    80004ae0:	d65f03c0 	ret
    80004ae4:	52800023 	mov	w3, #0x1                   	// #1
    80004ae8:	17fffff8 	b	80004ac8 <psci_get_target_local_pwr_states+0x70>
    80004aec:	00000000 	.inst	0x00000000 ; undefined

0000000080004af0 <psci_get_parent_pwr_domain_nodes>:
    80004af0:	d0000043 	adrp	x3, 8000e000 <psci_ns_context+0xb20>
    80004af4:	91110063 	add	x3, x3, #0x440
    80004af8:	8b20d060 	add	x0, x3, w0, sxtw #4
    80004afc:	b9400803 	ldr	w3, [x0, #8]
    80004b00:	34000161 	cbz	w1, 80004b2c <psci_get_parent_pwr_domain_nodes+0x3c>
    80004b04:	f0000085 	adrp	x5, 80017000 <sc_ipc_bakery_lock>
    80004b08:	910160a5 	add	x5, x5, #0x58
    80004b0c:	52800024 	mov	w4, #0x1                   	// #1
    80004b10:	d37c7c60 	ubfiz	x0, x3, #4, #32
    80004b14:	b8004443 	str	w3, [x2], #4
    80004b18:	8b0000a0 	add	x0, x5, x0
    80004b1c:	11000484 	add	w4, w4, #0x1
    80004b20:	6b04003f 	cmp	w1, w4
    80004b24:	b9400803 	ldr	w3, [x0, #8]
    80004b28:	54ffff42 	b.cs	80004b10 <psci_get_parent_pwr_domain_nodes+0x20>  // b.hs, b.nlast
    80004b2c:	d65f03c0 	ret

0000000080004b30 <psci_set_pwr_domains_to_run>:
    80004b30:	a9be7bfd 	stp	x29, x30, [sp, #-32]!
    80004b34:	910003fd 	mov	x29, sp
    80004b38:	f9000bf3 	str	x19, [sp, #16]
    80004b3c:	2a0003f3 	mov	w19, w0
    80004b40:	94000565 	bl	800060d4 <plat_my_core_pos>
    80004b44:	340002b3 	cbz	w19, 80004b98 <psci_set_pwr_domains_to_run+0x68>
    80004b48:	d37c7c01 	ubfiz	x1, x0, #4, #32
    80004b4c:	d0000042 	adrp	x2, 8000e000 <psci_ns_context+0xb20>
    80004b50:	91110042 	add	x2, x2, #0x440
    80004b54:	f0000083 	adrp	x3, 80017000 <sc_ipc_bakery_lock>
    80004b58:	8b010042 	add	x2, x2, x1
    80004b5c:	b0000041 	adrp	x1, 8000d000 <imx_gicv3_ctx+0x26c0>
    80004b60:	91134021 	add	x1, x1, #0x4d0
    80004b64:	91016063 	add	x3, x3, #0x58
    80004b68:	2a0003e4 	mov	w4, w0
    80004b6c:	7100067f 	cmp	w19, #0x1
    80004b70:	b9400842 	ldr	w2, [x2, #8]
    80004b74:	3820483f 	strb	wzr, [x1, w0, uxtw]
    80004b78:	8b021060 	add	x0, x3, x2, lsl #4
    80004b7c:	3900301f 	strb	wzr, [x0, #12]
    80004b80:	540000c9 	b.ls	80004b98 <psci_set_pwr_domains_to_run+0x68>  // b.plast
    80004b84:	b9400800 	ldr	w0, [x0, #8]
    80004b88:	8b040021 	add	x1, x1, x4
    80004b8c:	8b001063 	add	x3, x3, x0, lsl #4
    80004b90:	3900183f 	strb	wzr, [x1, #6]
    80004b94:	3900307f 	strb	wzr, [x3, #12]
    80004b98:	d53ed040 	mrs	x0, tpidr_el3
    80004b9c:	b900181f 	str	wzr, [x0, #24]
    80004ba0:	d53ed040 	mrs	x0, tpidr_el3
    80004ba4:	3900801f 	strb	wzr, [x0, #32]
    80004ba8:	d53ed040 	mrs	x0, tpidr_el3
    80004bac:	f9400bf3 	ldr	x19, [sp, #16]
    80004bb0:	91006000 	add	x0, x0, #0x18
    80004bb4:	a8c27bfd 	ldp	x29, x30, [sp], #32
    80004bb8:	d2800181 	mov	x1, #0xc                   	// #12
    80004bbc:	1400077a 	b	800069a4 <flush_dcache_range>

0000000080004bc0 <psci_do_state_coordination>:
    80004bc0:	a9ba7bfd 	stp	x29, x30, [sp, #-96]!
    80004bc4:	910003fd 	mov	x29, sp
    80004bc8:	a90153f3 	stp	x19, x20, [sp, #16]
    80004bcc:	2a0003f4 	mov	w20, w0
    80004bd0:	a90363f7 	stp	x23, x24, [sp, #48]
    80004bd4:	d0000057 	adrp	x23, 8000e000 <psci_ns_context+0xb20>
    80004bd8:	911102f7 	add	x23, x23, #0x440
    80004bdc:	a9046bf9 	stp	x25, x26, [sp, #64]
    80004be0:	aa0103f9 	mov	x25, x1
    80004be4:	9400053c 	bl	800060d4 <plat_my_core_pos>
    80004be8:	d37c7c01 	ubfiz	x1, x0, #4, #32
    80004bec:	8b0102e1 	add	x1, x23, x1
    80004bf0:	b9400822 	ldr	w2, [x1, #8]
    80004bf4:	340005f4 	cbz	w20, 80004cb0 <psci_do_state_coordination+0xf0>
    80004bf8:	a9025bf5 	stp	x21, x22, [sp, #32]
    80004bfc:	2a0003f6 	mov	w22, w0
    80004c00:	b0000055 	adrp	x21, 8000d000 <imx_gicv3_ctx+0x26c0>
    80004c04:	911342b5 	add	x21, x21, #0x4d0
    80004c08:	f000009a 	adrp	x26, 80017000 <sc_ipc_bakery_lock>
    80004c0c:	d2800033 	mov	x19, #0x1                   	// #1
    80004c10:	9101635a 	add	x26, x26, #0x58
    80004c14:	a90573fb 	stp	x27, x28, [sp, #80]
    80004c18:	8b1602bb 	add	x27, x21, x22
    80004c1c:	14000004 	b	80004c2c <psci_do_state_coordination+0x6c>
    80004c20:	b9400b82 	ldr	w2, [x28, #8]
    80004c24:	6b13029f 	cmp	w20, w19
    80004c28:	540007e3 	b.cc	80004d24 <psci_do_state_coordination+0x164>  // b.lo, b.ul, b.last
    80004c2c:	d37c7c42 	ubfiz	x2, x2, #4, #32
    80004c30:	8b130661 	add	x1, x19, x19, lsl #1
    80004c34:	8b02035c 	add	x28, x26, x2
    80004c38:	38736b23 	ldrb	w3, [x25, x19]
    80004c3c:	d37ff821 	lsl	x1, x1, #1
    80004c40:	39000363 	strb	w3, [x27]
    80004c44:	b8a26b44 	ldrsw	x4, [x26, x2]
    80004c48:	d1001821 	sub	x1, x1, #0x6
    80004c4c:	b9400782 	ldr	w2, [x28, #4]
    80004c50:	2a1303e0 	mov	w0, w19
    80004c54:	8b040021 	add	x1, x1, x4
    80004c58:	2a1303f8 	mov	w24, w19
    80004c5c:	8b0102a1 	add	x1, x21, x1
    80004c60:	91001b7b 	add	x27, x27, #0x6
    80004c64:	97fff891 	bl	80002ea8 <plat_get_target_pwr_state>
    80004c68:	38336b20 	strb	w0, [x25, x19]
    80004c6c:	72001c1f 	tst	w0, #0xff
    80004c70:	11000660 	add	w0, w19, #0x1
    80004c74:	91000673 	add	x19, x19, #0x1
    80004c78:	54fffd41 	b.ne	80004c20 <psci_do_state_coordination+0x60>  // b.any
    80004c7c:	6b00029f 	cmp	w20, w0
    80004c80:	54000143 	b.cc	80004ca8 <psci_do_state_coordination+0xe8>  // b.lo, b.ul, b.last
    80004c84:	51000401 	sub	w1, w0, #0x1
    80004c88:	38604b22 	ldrb	w2, [x25, w0, uxtw]
    80004c8c:	8b010421 	add	x1, x1, x1, lsl #1
    80004c90:	8b0106a1 	add	x1, x21, x1, lsl #1
    80004c94:	38366822 	strb	w2, [x1, x22]
    80004c98:	38204b3f 	strb	wzr, [x25, w0, uxtw]
    80004c9c:	11000400 	add	w0, w0, #0x1
    80004ca0:	6b00029f 	cmp	w20, w0
    80004ca4:	54ffff02 	b.cs	80004c84 <psci_do_state_coordination+0xc4>  // b.hs, b.nlast
    80004ca8:	a9425bf5 	ldp	x21, x22, [sp, #32]
    80004cac:	a94573fb 	ldp	x27, x28, [sp, #80]
    80004cb0:	39400321 	ldrb	w1, [x25]
    80004cb4:	d53ed040 	mrs	x0, tpidr_el3
    80004cb8:	39008001 	strb	w1, [x0, #32]
    80004cbc:	d53ed040 	mrs	x0, tpidr_el3
    80004cc0:	91008000 	add	x0, x0, #0x20
    80004cc4:	d2800021 	mov	x1, #0x1                   	// #1
    80004cc8:	94000737 	bl	800069a4 <flush_dcache_range>
    80004ccc:	94000502 	bl	800060d4 <plat_my_core_pos>
    80004cd0:	d37c7c00 	ubfiz	x0, x0, #4, #32
    80004cd4:	8b0002f7 	add	x23, x23, x0
    80004cd8:	b9400ae1 	ldr	w1, [x23, #8]
    80004cdc:	340001b4 	cbz	w20, 80004d10 <psci_do_state_coordination+0x150>
    80004ce0:	91000720 	add	x0, x25, #0x1
    80004ce4:	f000009a 	adrp	x26, 80017000 <sc_ipc_bakery_lock>
    80004ce8:	4b1903f9 	neg	w25, w25
    80004cec:	9101635a 	add	x26, x26, #0x58
    80004cf0:	d37c7c21 	ubfiz	x1, x1, #4, #32
    80004cf4:	38401402 	ldrb	w2, [x0], #1
    80004cf8:	8b010341 	add	x1, x26, x1
    80004cfc:	0b000323 	add	w3, w25, w0
    80004d00:	6b03029f 	cmp	w20, w3
    80004d04:	39003022 	strb	w2, [x1, #12]
    80004d08:	b9400821 	ldr	w1, [x1, #8]
    80004d0c:	54ffff22 	b.cs	80004cf0 <psci_do_state_coordination+0x130>  // b.hs, b.nlast
    80004d10:	a94153f3 	ldp	x19, x20, [sp, #16]
    80004d14:	a94363f7 	ldp	x23, x24, [sp, #48]
    80004d18:	a9446bf9 	ldp	x25, x26, [sp, #64]
    80004d1c:	a8c67bfd 	ldp	x29, x30, [sp], #96
    80004d20:	d65f03c0 	ret
    80004d24:	11000b00 	add	w0, w24, #0x2
    80004d28:	17ffffd5 	b	80004c7c <psci_do_state_coordination+0xbc>
    80004d2c:	00000000 	.inst	0x00000000 ; undefined

0000000080004d30 <psci_find_max_off_lvl>:
    80004d30:	39400801 	ldrb	w1, [x0, #2]
    80004d34:	7100083f 	cmp	w1, #0x2
    80004d38:	54000120 	b.eq	80004d5c <psci_find_max_off_lvl+0x2c>  // b.none
    80004d3c:	39400401 	ldrb	w1, [x0, #1]
    80004d40:	7100083f 	cmp	w1, #0x2
    80004d44:	54000100 	b.eq	80004d64 <psci_find_max_off_lvl+0x34>  // b.none
    80004d48:	39400001 	ldrb	w1, [x0]
    80004d4c:	52800060 	mov	w0, #0x3                   	// #3
    80004d50:	7100083f 	cmp	w1, #0x2
    80004d54:	1a9f1000 	csel	w0, w0, wzr, ne  // ne = any
    80004d58:	d65f03c0 	ret
    80004d5c:	2a0103e0 	mov	w0, w1
    80004d60:	d65f03c0 	ret
    80004d64:	52800020 	mov	w0, #0x1                   	// #1
    80004d68:	d65f03c0 	ret
    80004d6c:	00000000 	.inst	0x00000000 ; undefined

0000000080004d70 <psci_find_target_suspend_lvl>:
    80004d70:	39400801 	ldrb	w1, [x0, #2]
    80004d74:	35000101 	cbnz	w1, 80004d94 <psci_find_target_suspend_lvl+0x24>
    80004d78:	39400401 	ldrb	w1, [x0, #1]
    80004d7c:	35000101 	cbnz	w1, 80004d9c <psci_find_target_suspend_lvl+0x2c>
    80004d80:	39400001 	ldrb	w1, [x0]
    80004d84:	52800060 	mov	w0, #0x3                   	// #3
    80004d88:	7100003f 	cmp	w1, #0x0
    80004d8c:	1a9f0000 	csel	w0, w0, wzr, eq  // eq = none
    80004d90:	d65f03c0 	ret
    80004d94:	52800040 	mov	w0, #0x2                   	// #2
    80004d98:	d65f03c0 	ret
    80004d9c:	52800020 	mov	w0, #0x1                   	// #1
    80004da0:	d65f03c0 	ret
    80004da4:	00000000 	.inst	0x00000000 ; undefined

0000000080004da8 <psci_acquire_pwr_domain_locks>:
    80004da8:	a9bc7bfd 	stp	x29, x30, [sp, #-64]!
    80004dac:	d0000042 	adrp	x2, 8000e000 <psci_ns_context+0xb20>
    80004db0:	91110042 	add	x2, x2, #0x440
    80004db4:	910003fd 	mov	x29, sp
    80004db8:	8b21d041 	add	x1, x2, w1, sxtw #4
    80004dbc:	a90153f3 	stp	x19, x20, [sp, #16]
    80004dc0:	b9400833 	ldr	w19, [x1, #8]
    80004dc4:	340002c0 	cbz	w0, 80004e1c <psci_acquire_pwr_domain_locks+0x74>
    80004dc8:	a9025bf5 	stp	x21, x22, [sp, #32]
    80004dcc:	f0000096 	adrp	x22, 80017000 <sc_ipc_bakery_lock>
    80004dd0:	2a0003f5 	mov	w21, w0
    80004dd4:	910162d6 	add	x22, x22, #0x58
    80004dd8:	a90363f7 	stp	x23, x24, [sp, #48]
    80004ddc:	f0000097 	adrp	x23, 80017000 <sc_ipc_bakery_lock>
    80004de0:	910042f7 	add	x23, x23, #0x10
    80004de4:	52800034 	mov	w20, #0x1                   	// #1
    80004de8:	52800198 	mov	w24, #0xc                   	// #12
    80004dec:	d503201f 	nop
    80004df0:	d37c7e73 	ubfiz	x19, x19, #4, #32
    80004df4:	11000694 	add	w20, w20, #0x1
    80004df8:	8b1302d3 	add	x19, x22, x19
    80004dfc:	39403a60 	ldrb	w0, [x19, #14]
    80004e00:	9bb85c00 	umaddl	x0, w0, w24, x23
    80004e04:	940003d9 	bl	80005d68 <bakery_lock_get>
    80004e08:	b9400a73 	ldr	w19, [x19, #8]
    80004e0c:	6b1402bf 	cmp	w21, w20
    80004e10:	54ffff02 	b.cs	80004df0 <psci_acquire_pwr_domain_locks+0x48>  // b.hs, b.nlast
    80004e14:	a9425bf5 	ldp	x21, x22, [sp, #32]
    80004e18:	a94363f7 	ldp	x23, x24, [sp, #48]
    80004e1c:	a94153f3 	ldp	x19, x20, [sp, #16]
    80004e20:	a8c47bfd 	ldp	x29, x30, [sp], #64
    80004e24:	d65f03c0 	ret

0000000080004e28 <psci_release_pwr_domain_locks>:
    80004e28:	a9bb7bfd 	stp	x29, x30, [sp, #-80]!
    80004e2c:	d0000042 	adrp	x2, 8000e000 <psci_ns_context+0xb20>
    80004e30:	91110042 	add	x2, x2, #0x440
    80004e34:	910003fd 	mov	x29, sp
    80004e38:	8b21d041 	add	x1, x2, w1, sxtw #4
    80004e3c:	f90027ff 	str	xzr, [sp, #72]
    80004e40:	b9400822 	ldr	w2, [x1, #8]
    80004e44:	34000400 	cbz	w0, 80004ec4 <psci_release_pwr_domain_locks+0x9c>
    80004e48:	a9025bf5 	stp	x21, x22, [sp, #32]
    80004e4c:	910123f5 	add	x21, sp, #0x48
    80004e50:	aa1503e4 	mov	x4, x21
    80004e54:	a90153f3 	stp	x19, x20, [sp, #16]
    80004e58:	f0000094 	adrp	x20, 80017000 <sc_ipc_bakery_lock>
    80004e5c:	91016294 	add	x20, x20, #0x58
    80004e60:	52800023 	mov	w3, #0x1                   	// #1
    80004e64:	f9001bf7 	str	x23, [sp, #48]
    80004e68:	d37c7c41 	ubfiz	x1, x2, #4, #32
    80004e6c:	b8004482 	str	w2, [x4], #4
    80004e70:	8b010281 	add	x1, x20, x1
    80004e74:	11000463 	add	w3, w3, #0x1
    80004e78:	6b03001f 	cmp	w0, w3
    80004e7c:	b9400822 	ldr	w2, [x1, #8]
    80004e80:	54ffff42 	b.cs	80004e68 <psci_release_pwr_domain_locks+0x40>  // b.hs, b.nlast
    80004e84:	51000400 	sub	w0, w0, #0x1
    80004e88:	f0000096 	adrp	x22, 80017000 <sc_ipc_bakery_lock>
    80004e8c:	910042d6 	add	x22, x22, #0x10
    80004e90:	52800197 	mov	w23, #0xc                   	// #12
    80004e94:	8b000ab3 	add	x19, x21, x0, lsl #2
    80004e98:	b9400260 	ldr	w0, [x19]
    80004e9c:	8b001280 	add	x0, x20, x0, lsl #4
    80004ea0:	39403800 	ldrb	w0, [x0, #14]
    80004ea4:	9bb75800 	umaddl	x0, w0, w23, x22
    80004ea8:	940003e8 	bl	80005e48 <bakery_lock_release>
    80004eac:	eb15027f 	cmp	x19, x21
    80004eb0:	d1001273 	sub	x19, x19, #0x4
    80004eb4:	54ffff21 	b.ne	80004e98 <psci_release_pwr_domain_locks+0x70>  // b.any
    80004eb8:	a94153f3 	ldp	x19, x20, [sp, #16]
    80004ebc:	a9425bf5 	ldp	x21, x22, [sp, #32]
    80004ec0:	f9401bf7 	ldr	x23, [sp, #48]
    80004ec4:	a8c57bfd 	ldp	x29, x30, [sp], #80
    80004ec8:	d65f03c0 	ret
    80004ecc:	00000000 	.inst	0x00000000 ; undefined

0000000080004ed0 <psci_validate_mpidr>:
    80004ed0:	a9bf7bfd 	stp	x29, x30, [sp, #-16]!
    80004ed4:	910003fd 	mov	x29, sp
    80004ed8:	97fff0f8 	bl	800012b8 <plat_core_pos_by_mpidr>
    80004edc:	7100001f 	cmp	w0, #0x0
    80004ee0:	a8c17bfd 	ldp	x29, x30, [sp], #16
    80004ee4:	12800020 	mov	w0, #0xfffffffe            	// #-2
    80004ee8:	1a9fb000 	csel	w0, w0, wzr, lt  // lt = tstop
    80004eec:	d65f03c0 	ret

0000000080004ef0 <psci_validate_entry_point>:
    80004ef0:	a9bb7bfd 	stp	x29, x30, [sp, #-80]!
    80004ef4:	d0000043 	adrp	x3, 8000e000 <psci_ns_context+0xb20>
    80004ef8:	910003fd 	mov	x29, sp
    80004efc:	f9425063 	ldr	x3, [x3, #1184]
    80004f00:	a90153f3 	stp	x19, x20, [sp, #16]
    80004f04:	aa0103f4 	mov	x20, x1
    80004f08:	a90363f7 	stp	x23, x24, [sp, #48]
    80004f0c:	aa0003f3 	mov	x19, x0
    80004f10:	aa0203f7 	mov	x23, x2
    80004f14:	f9402c61 	ldr	x1, [x3, #88]
    80004f18:	b4000081 	cbz	x1, 80004f28 <psci_validate_entry_point+0x38>
    80004f1c:	aa1403e0 	mov	x0, x20
    80004f20:	d63f0020 	blr	x1
    80004f24:	350006a0 	cbnz	w0, 80004ff8 <psci_validate_entry_point+0x108>
    80004f28:	a9025bf5 	stp	x21, x22, [sp, #32]
    80004f2c:	f90023f9 	str	x25, [sp, #64]
    80004f30:	d53e1115 	mrs	x21, scr_el3
    80004f34:	d5381000 	mrs	x0, sctlr_el1
    80004f38:	927802b9 	and	x25, x21, #0x100
    80004f3c:	36400055 	tbz	w21, #8, 80004f44 <psci_validate_entry_point+0x54>
    80004f40:	d53c1000 	mrs	x0, sctlr_el2
    80004f44:	f2670000 	ands	x0, x0, #0x2000000
    80004f48:	52800076 	mov	w22, #0x3                   	// #3
    80004f4c:	1a9f16c1 	csinc	w1, w22, wzr, ne  // ne = any
    80004f50:	f100001f 	cmp	x0, #0x0
    80004f54:	52802020 	mov	w0, #0x101                 	// #257
    80004f58:	f9000674 	str	x20, [x19, #8]
    80004f5c:	72a00b00 	movk	w0, #0x58, lsl #16
    80004f60:	29000660 	stp	w0, w1, [x19]
    80004f64:	1a9f07f8 	cset	w24, ne  // ne = any
    80004f68:	91006260 	add	x0, x19, #0x18
    80004f6c:	d2800801 	mov	x1, #0x40                  	// #64
    80004f70:	940006f6 	bl	80006b48 <zeromem>
    80004f74:	f9000e77 	str	x23, [x19, #24]
    80004f78:	365001d5 	tbz	w21, #10, 80004fb0 <psci_validate_entry_point+0xc0>
    80004f7c:	370003b4 	tbnz	w20, #0, 80004ff0 <psci_validate_entry_point+0x100>
    80004f80:	f100033f 	cmp	x25, #0x0
    80004f84:	528078a2 	mov	w2, #0x3c5                 	// #965
    80004f88:	52807921 	mov	w1, #0x3c9                 	// #969
    80004f8c:	1a821021 	csel	w1, w1, w2, ne  // ne = any
    80004f90:	a9425bf5 	ldp	x21, x22, [sp, #32]
    80004f94:	52800000 	mov	w0, #0x0                   	// #0
    80004f98:	f94023f9 	ldr	x25, [sp, #64]
    80004f9c:	b9001261 	str	w1, [x19, #16]
    80004fa0:	a94153f3 	ldp	x19, x20, [sp, #16]
    80004fa4:	a94363f7 	ldp	x23, x24, [sp, #48]
    80004fa8:	a8c57bfd 	ldp	x29, x30, [sp], #80
    80004fac:	d65f03c0 	ret
    80004fb0:	f100033f 	cmp	x25, #0x0
    80004fb4:	52800140 	mov	w0, #0xa                   	// #10
    80004fb8:	531b0294 	ubfiz	w20, w20, #5, #1
    80004fbc:	1a961016 	csel	w22, w0, w22, ne  // ne = any
    80004fc0:	52803a01 	mov	w1, #0x1d0                 	// #464
    80004fc4:	2a160294 	orr	w20, w20, w22
    80004fc8:	2a182421 	orr	w1, w1, w24, lsl #9
    80004fcc:	52800000 	mov	w0, #0x0                   	// #0
    80004fd0:	2a010294 	orr	w20, w20, w1
    80004fd4:	a9425bf5 	ldp	x21, x22, [sp, #32]
    80004fd8:	f94023f9 	ldr	x25, [sp, #64]
    80004fdc:	b9001274 	str	w20, [x19, #16]
    80004fe0:	a94153f3 	ldp	x19, x20, [sp, #16]
    80004fe4:	a94363f7 	ldp	x23, x24, [sp, #48]
    80004fe8:	a8c57bfd 	ldp	x29, x30, [sp], #80
    80004fec:	d65f03c0 	ret
    80004ff0:	a9425bf5 	ldp	x21, x22, [sp, #32]
    80004ff4:	f94023f9 	ldr	x25, [sp, #64]
    80004ff8:	12800100 	mov	w0, #0xfffffff7            	// #-9
    80004ffc:	17fffff9 	b	80004fe0 <psci_validate_entry_point+0xf0>

0000000080005000 <psci_warmboot_entrypoint>:
    80005000:	a9ba7bfd 	stp	x29, x30, [sp, #-96]!
    80005004:	910003fd 	mov	x29, sp
    80005008:	a90363f7 	stp	x23, x24, [sp, #48]
    8000500c:	94000432 	bl	800060d4 <plat_my_core_pos>
    80005010:	2a0003f8 	mov	w24, w0
    80005014:	7900b3ff 	strh	wzr, [sp, #88]
    80005018:	39016bff 	strb	wzr, [sp, #90]
    8000501c:	d53ed040 	mrs	x0, tpidr_el3
    80005020:	b9401800 	ldr	w0, [x0, #24]
    80005024:	a90153f3 	stp	x19, x20, [sp, #16]
    80005028:	7100041f 	cmp	w0, #0x1
    8000502c:	a9025bf5 	stp	x21, x22, [sp, #32]
    80005030:	540006a0 	b.eq	80005104 <psci_warmboot_entrypoint+0x104>  // b.none
    80005034:	d53ed041 	mrs	x1, tpidr_el3
    80005038:	b0000040 	adrp	x0, 8000e000 <psci_ns_context+0xb20>
    8000503c:	91110000 	add	x0, x0, #0x440
    80005040:	8b38d000 	add	x0, x0, w24, sxtw #4
    80005044:	b9401c35 	ldr	w21, [x1, #28]
    80005048:	71000ebf 	cmp	w21, #0x3
    8000504c:	b9400813 	ldr	w19, [x0, #8]
    80005050:	54000540 	b.eq	800050f8 <psci_warmboot_entrypoint+0xf8>  // b.none
    80005054:	34000275 	cbz	w21, 800050a0 <psci_warmboot_entrypoint+0xa0>
    80005058:	f90023f9 	str	x25, [sp, #64]
    8000505c:	d0000097 	adrp	x23, 80017000 <sc_ipc_bakery_lock>
    80005060:	d0000096 	adrp	x22, 80017000 <sc_ipc_bakery_lock>
    80005064:	910042f7 	add	x23, x23, #0x10
    80005068:	910162d6 	add	x22, x22, #0x58
    8000506c:	52800034 	mov	w20, #0x1                   	// #1
    80005070:	52800199 	mov	w25, #0xc                   	// #12
    80005074:	d503201f 	nop
    80005078:	d37c7e73 	ubfiz	x19, x19, #4, #32
    8000507c:	11000694 	add	w20, w20, #0x1
    80005080:	8b1302d3 	add	x19, x22, x19
    80005084:	39403a60 	ldrb	w0, [x19, #14]
    80005088:	9bb95c00 	umaddl	x0, w0, w25, x23
    8000508c:	94000337 	bl	80005d68 <bakery_lock_get>
    80005090:	b9400a73 	ldr	w19, [x19, #8]
    80005094:	6b15029f 	cmp	w20, w21
    80005098:	54ffff09 	b.ls	80005078 <psci_warmboot_entrypoint+0x78>  // b.plast
    8000509c:	f94023f9 	ldr	x25, [sp, #64]
    800050a0:	2a1503e0 	mov	w0, w21
    800050a4:	910163e1 	add	x1, sp, #0x58
    800050a8:	97fffe6c 	bl	80004a58 <psci_get_target_local_pwr_states>
    800050ac:	d53ed040 	mrs	x0, tpidr_el3
    800050b0:	b9401800 	ldr	w0, [x0, #24]
    800050b4:	910163e1 	add	x1, sp, #0x58
    800050b8:	7100081f 	cmp	w0, #0x2
    800050bc:	2a1803e0 	mov	w0, w24
    800050c0:	54000180 	b.eq	800050f0 <psci_warmboot_entrypoint+0xf0>  // b.none
    800050c4:	97fffe03 	bl	800048d0 <psci_cpu_suspend_finish>
    800050c8:	2a1503e0 	mov	w0, w21
    800050cc:	97fffe99 	bl	80004b30 <psci_set_pwr_domains_to_run>
    800050d0:	2a1803e1 	mov	w1, w24
    800050d4:	2a1503e0 	mov	w0, w21
    800050d8:	97ffff54 	bl	80004e28 <psci_release_pwr_domain_locks>
    800050dc:	a94153f3 	ldp	x19, x20, [sp, #16]
    800050e0:	a9425bf5 	ldp	x21, x22, [sp, #32]
    800050e4:	a94363f7 	ldp	x23, x24, [sp, #48]
    800050e8:	a8c67bfd 	ldp	x29, x30, [sp], #96
    800050ec:	d65f03c0 	ret
    800050f0:	97fffd4c 	bl	80004620 <psci_cpu_on_finish>
    800050f4:	17fffff5 	b	800050c8 <psci_warmboot_entrypoint+0xc8>
    800050f8:	52800055 	mov	w21, #0x2                   	// #2
    800050fc:	f90023f9 	str	x25, [sp, #64]
    80005100:	17ffffd7 	b	8000505c <psci_warmboot_entrypoint+0x5c>
    80005104:	d0000000 	adrp	x0, 80007000 <vprintf+0x238>
    80005108:	91210000 	add	x0, x0, #0x840
    8000510c:	f90023f9 	str	x25, [sp, #64]
    80005110:	940003a4 	bl	80005fa0 <tf_log>
    80005114:	940004b3 	bl	800063e0 <console_flush>
    80005118:	94000618 	bl	80006978 <do_panic>
    8000511c:	00000000 	.inst	0x00000000 ; undefined

0000000080005120 <psci_spd_migrate_info>:
    80005120:	b0000041 	adrp	x1, 8000e000 <psci_ns_context+0xb20>
    80005124:	f9425421 	ldr	x1, [x1, #1192]
    80005128:	b40000a1 	cbz	x1, 8000513c <psci_spd_migrate_info+0x1c>
    8000512c:	f9401821 	ldr	x1, [x1, #48]
    80005130:	b4000061 	cbz	x1, 8000513c <psci_spd_migrate_info+0x1c>
    80005134:	aa0103f0 	mov	x16, x1
    80005138:	d61f0200 	br	x16
    8000513c:	12800000 	mov	w0, #0xffffffff            	// #-1
    80005140:	d65f03c0 	ret
    80005144:	00000000 	.inst	0x00000000 ; undefined

0000000080005148 <psci_print_power_domain_map>:
    80005148:	d65f03c0 	ret
    8000514c:	00000000 	.inst	0x00000000 ; undefined

0000000080005150 <psci_do_pwrdown_sequence>:
    80005150:	1400057c 	b	80006740 <psci_do_pwrdown_cache_maintenance>
    80005154:	00000000 	.inst	0x00000000 ; undefined

0000000080005158 <psci_cpu_on>:
    80005158:	a9b77bfd 	stp	x29, x30, [sp, #-144]!
    8000515c:	910003fd 	mov	x29, sp
    80005160:	a90153f3 	stp	x19, x20, [sp, #16]
    80005164:	aa0103f3 	mov	x19, x1
    80005168:	aa0203f4 	mov	x20, x2
    8000516c:	f90013f5 	str	x21, [sp, #32]
    80005170:	aa0003f5 	mov	x21, x0
    80005174:	97ffff57 	bl	80004ed0 <psci_validate_mpidr>
    80005178:	350001a0 	cbnz	w0, 800051ac <psci_cpu_on+0x54>
    8000517c:	aa1403e2 	mov	x2, x20
    80005180:	aa1303e1 	mov	x1, x19
    80005184:	9100e3e0 	add	x0, sp, #0x38
    80005188:	97ffff5a 	bl	80004ef0 <psci_validate_entry_point>
    8000518c:	35000080 	cbnz	w0, 8000519c <psci_cpu_on+0x44>
    80005190:	9100e3e1 	add	x1, sp, #0x38
    80005194:	aa1503e0 	mov	x0, x21
    80005198:	97fffcc0 	bl	80004498 <psci_cpu_on_start>
    8000519c:	a94153f3 	ldp	x19, x20, [sp, #16]
    800051a0:	f94013f5 	ldr	x21, [sp, #32]
    800051a4:	a8c97bfd 	ldp	x29, x30, [sp], #144
    800051a8:	d65f03c0 	ret
    800051ac:	12800020 	mov	w0, #0xfffffffe            	// #-2
    800051b0:	17fffffb 	b	8000519c <psci_cpu_on+0x44>
    800051b4:	00000000 	.inst	0x00000000 ; undefined

00000000800051b8 <psci_cpu_suspend>:
    800051b8:	a9b67bfd 	stp	x29, x30, [sp, #-160]!
    800051bc:	910003fd 	mov	x29, sp
    800051c0:	a90153f3 	stp	x19, x20, [sp, #16]
    800051c4:	2a0003f4 	mov	w20, w0
    800051c8:	a9025bf5 	stp	x21, x22, [sp, #32]
    800051cc:	aa0203f6 	mov	x22, x2
    800051d0:	a90363f7 	stp	x23, x24, [sp, #48]
    800051d4:	aa0103f7 	mov	x23, x1
    800051d8:	910103e1 	add	x1, sp, #0x40
    800051dc:	790083ff 	strh	wzr, [sp, #64]
    800051e0:	39010bff 	strb	wzr, [sp, #66]
    800051e4:	97fffded 	bl	80004998 <psci_validate_power_state>
    800051e8:	2a0003f3 	mov	w19, w0
    800051ec:	340000e0 	cbz	w0, 80005208 <psci_cpu_suspend+0x50>
    800051f0:	2a1303e0 	mov	w0, w19
    800051f4:	a94153f3 	ldp	x19, x20, [sp, #16]
    800051f8:	a9425bf5 	ldp	x21, x22, [sp, #32]
    800051fc:	a94363f7 	ldp	x23, x24, [sp, #48]
    80005200:	a8ca7bfd 	ldp	x29, x30, [sp], #160
    80005204:	d65f03c0 	ret
    80005208:	910103e0 	add	x0, sp, #0x40
    8000520c:	d3504294 	ubfx	x20, x20, #16, #1
    80005210:	97fffed8 	bl	80004d70 <psci_find_target_suspend_lvl>
    80005214:	2a0003f5 	mov	w21, w0
    80005218:	71000c1f 	cmp	w0, #0x3
    8000521c:	54000520 	b.eq	800052c0 <psci_cpu_suspend+0x108>  // b.none
    80005220:	2a000280 	orr	w0, w20, w0
    80005224:	35000220 	cbnz	w0, 80005268 <psci_cpu_suspend+0xb0>
    80005228:	b0000040 	adrp	x0, 8000e000 <psci_ns_context+0xb20>
    8000522c:	f9425000 	ldr	x0, [x0, #1184]
    80005230:	f9400001 	ldr	x1, [x0]
    80005234:	b4000421 	cbz	x1, 800052b8 <psci_cpu_suspend+0x100>
    80005238:	394103e0 	ldrb	w0, [sp, #64]
    8000523c:	d53ed042 	mrs	x2, tpidr_el3
    80005240:	39008040 	strb	w0, [x2, #32]
    80005244:	d63f0020 	blr	x1
    80005248:	d53ed040 	mrs	x0, tpidr_el3
    8000524c:	3900801f 	strb	wzr, [x0, #32]
    80005250:	2a1303e0 	mov	w0, w19
    80005254:	a94153f3 	ldp	x19, x20, [sp, #16]
    80005258:	a9425bf5 	ldp	x21, x22, [sp, #32]
    8000525c:	a94363f7 	ldp	x23, x24, [sp, #48]
    80005260:	a8ca7bfd 	ldp	x29, x30, [sp], #160
    80005264:	d65f03c0 	ret
    80005268:	910123f8 	add	x24, sp, #0x48
    8000526c:	340000d4 	cbz	w20, 80005284 <psci_cpu_suspend+0xcc>
    80005270:	aa1603e2 	mov	x2, x22
    80005274:	aa1703e1 	mov	x1, x23
    80005278:	aa1803e0 	mov	x0, x24
    8000527c:	97ffff1d 	bl	80004ef0 <psci_validate_entry_point>
    80005280:	35000180 	cbnz	w0, 800052b0 <psci_cpu_suspend+0xf8>
    80005284:	2a1403e3 	mov	w3, w20
    80005288:	910103e2 	add	x2, sp, #0x40
    8000528c:	2a1503e1 	mov	w1, w21
    80005290:	aa1803e0 	mov	x0, x24
    80005294:	97fffd1b 	bl	80004700 <psci_cpu_suspend_start>
    80005298:	2a1303e0 	mov	w0, w19
    8000529c:	a94153f3 	ldp	x19, x20, [sp, #16]
    800052a0:	a9425bf5 	ldp	x21, x22, [sp, #32]
    800052a4:	a94363f7 	ldp	x23, x24, [sp, #48]
    800052a8:	a8ca7bfd 	ldp	x29, x30, [sp], #160
    800052ac:	d65f03c0 	ret
    800052b0:	2a0003f3 	mov	w19, w0
    800052b4:	17ffffcf 	b	800051f0 <psci_cpu_suspend+0x38>
    800052b8:	12800033 	mov	w19, #0xfffffffe            	// #-2
    800052bc:	17ffffcd 	b	800051f0 <psci_cpu_suspend+0x38>
    800052c0:	d0000000 	adrp	x0, 80007000 <vprintf+0x238>
    800052c4:	91218000 	add	x0, x0, #0x860
    800052c8:	94000336 	bl	80005fa0 <tf_log>
    800052cc:	94000445 	bl	800063e0 <console_flush>
    800052d0:	940005aa 	bl	80006978 <do_panic>
    800052d4:	00000000 	.inst	0x00000000 ; undefined

00000000800052d8 <psci_system_suspend>:
    800052d8:	a9b87bfd 	stp	x29, x30, [sp, #-128]!
    800052dc:	910003fd 	mov	x29, sp
    800052e0:	a90153f3 	stp	x19, x20, [sp, #16]
    800052e4:	aa0003f3 	mov	x19, x0
    800052e8:	aa0103f4 	mov	x20, x1
    800052ec:	97fffdbb 	bl	800049d8 <psci_is_last_on_cpu>
    800052f0:	34000240 	cbz	w0, 80005338 <psci_system_suspend+0x60>
    800052f4:	aa1303e1 	mov	x1, x19
    800052f8:	aa1403e2 	mov	x2, x20
    800052fc:	9100a3e0 	add	x0, sp, #0x28
    80005300:	97fffefc 	bl	80004ef0 <psci_validate_entry_point>
    80005304:	2a0003f3 	mov	w19, w0
    80005308:	35000100 	cbnz	w0, 80005328 <psci_system_suspend+0x50>
    8000530c:	910083e0 	add	x0, sp, #0x20
    80005310:	97fffdac 	bl	800049c0 <psci_query_sys_suspend_pwrstate>
    80005314:	910083e2 	add	x2, sp, #0x20
    80005318:	9100a3e0 	add	x0, sp, #0x28
    8000531c:	52800023 	mov	w3, #0x1                   	// #1
    80005320:	52800041 	mov	w1, #0x2                   	// #2
    80005324:	97fffcf7 	bl	80004700 <psci_cpu_suspend_start>
    80005328:	2a1303e0 	mov	w0, w19
    8000532c:	a94153f3 	ldp	x19, x20, [sp, #16]
    80005330:	a8c87bfd 	ldp	x29, x30, [sp], #128
    80005334:	d65f03c0 	ret
    80005338:	12800053 	mov	w19, #0xfffffffd            	// #-3
    8000533c:	17fffffb 	b	80005328 <psci_system_suspend+0x50>

0000000080005340 <psci_affinity_info>:
    80005340:	35000281 	cbnz	w1, 80005390 <psci_affinity_info+0x50>
    80005344:	a9be7bfd 	stp	x29, x30, [sp, #-32]!
    80005348:	910003fd 	mov	x29, sp
    8000534c:	f9000bf3 	str	x19, [sp, #16]
    80005350:	97ffefda 	bl	800012b8 <plat_core_pos_by_mpidr>
    80005354:	2a0003f3 	mov	w19, w0
    80005358:	3100041f 	cmn	w0, #0x1
    8000535c:	54000160 	b.eq	80005388 <psci_affinity_info+0x48>  // b.none
    80005360:	940004ab 	bl	8000660c <_cpu_data_by_index>
    80005364:	91006000 	add	x0, x0, #0x18
    80005368:	d2800081 	mov	x1, #0x4                   	// #4
    8000536c:	9400058e 	bl	800069a4 <flush_dcache_range>
    80005370:	2a1303e0 	mov	w0, w19
    80005374:	940004a6 	bl	8000660c <_cpu_data_by_index>
    80005378:	b9401800 	ldr	w0, [x0, #24]
    8000537c:	f9400bf3 	ldr	x19, [sp, #16]
    80005380:	a8c27bfd 	ldp	x29, x30, [sp], #32
    80005384:	d65f03c0 	ret
    80005388:	12800020 	mov	w0, #0xfffffffe            	// #-2
    8000538c:	17fffffc 	b	8000537c <psci_affinity_info+0x3c>
    80005390:	12800020 	mov	w0, #0xfffffffe            	// #-2
    80005394:	d65f03c0 	ret

0000000080005398 <psci_migrate>:
    80005398:	a9bd7bfd 	stp	x29, x30, [sp, #-48]!
    8000539c:	910003fd 	mov	x29, sp
    800053a0:	f9000bf3 	str	x19, [sp, #16]
    800053a4:	aa0003f3 	mov	x19, x0
    800053a8:	9100a3e0 	add	x0, sp, #0x28
    800053ac:	97ffff5d 	bl	80005120 <psci_spd_migrate_info>
    800053b0:	35000220 	cbnz	w0, 800053f4 <psci_migrate+0x5c>
    800053b4:	d53800a0 	mrs	x0, mpidr_el1
    800053b8:	f94017e1 	ldr	x1, [sp, #40]
    800053bc:	eb00003f 	cmp	x1, x0
    800053c0:	54000261 	b.ne	8000540c <psci_migrate+0x74>  // b.any
    800053c4:	aa1303e0 	mov	x0, x19
    800053c8:	97fffec2 	bl	80004ed0 <psci_validate_mpidr>
    800053cc:	35000240 	cbnz	w0, 80005414 <psci_migrate+0x7c>
    800053d0:	d53800a0 	mrs	x0, mpidr_el1
    800053d4:	b0000042 	adrp	x2, 8000e000 <psci_ns_context+0xb20>
    800053d8:	aa1303e1 	mov	x1, x19
    800053dc:	f9425442 	ldr	x2, [x2, #1192]
    800053e0:	f9401442 	ldr	x2, [x2, #40]
    800053e4:	d63f0040 	blr	x2
    800053e8:	f9400bf3 	ldr	x19, [sp, #16]
    800053ec:	a8c37bfd 	ldp	x29, x30, [sp], #48
    800053f0:	d65f03c0 	ret
    800053f4:	7100041f 	cmp	w0, #0x1
    800053f8:	12800040 	mov	w0, #0xfffffffd            	// #-3
    800053fc:	5a9f0000 	csinv	w0, w0, wzr, eq  // eq = none
    80005400:	f9400bf3 	ldr	x19, [sp, #16]
    80005404:	a8c37bfd 	ldp	x29, x30, [sp], #48
    80005408:	d65f03c0 	ret
    8000540c:	128000c0 	mov	w0, #0xfffffff9            	// #-7
    80005410:	17fffff6 	b	800053e8 <psci_migrate+0x50>
    80005414:	12800020 	mov	w0, #0xfffffffe            	// #-2
    80005418:	17fffff4 	b	800053e8 <psci_migrate+0x50>
    8000541c:	00000000 	.inst	0x00000000 ; undefined

0000000080005420 <psci_node_hw_state>:
    80005420:	a9be7bfd 	stp	x29, x30, [sp, #-32]!
    80005424:	910003fd 	mov	x29, sp
    80005428:	a90153f3 	stp	x19, x20, [sp, #16]
    8000542c:	2a0103f3 	mov	w19, w1
    80005430:	aa0003f4 	mov	x20, x0
    80005434:	97fffea7 	bl	80004ed0 <psci_validate_mpidr>
    80005438:	7100001f 	cmp	w0, #0x0
    8000543c:	7a420a62 	ccmp	w19, #0x2, #0x2, eq  // eq = none
    80005440:	54000148 	b.hi	80005468 <psci_node_hw_state+0x48>  // b.pmore
    80005444:	b0000042 	adrp	x2, 8000e000 <psci_ns_context+0xb20>
    80005448:	2a1303e1 	mov	w1, w19
    8000544c:	aa1403e0 	mov	x0, x20
    80005450:	f9425042 	ldr	x2, [x2, #1184]
    80005454:	a94153f3 	ldp	x19, x20, [sp, #16]
    80005458:	a8c27bfd 	ldp	x29, x30, [sp], #32
    8000545c:	f9403c42 	ldr	x2, [x2, #120]
    80005460:	aa0203f0 	mov	x16, x2
    80005464:	d61f0200 	br	x16
    80005468:	12800020 	mov	w0, #0xfffffffe            	// #-2
    8000546c:	a94153f3 	ldp	x19, x20, [sp, #16]
    80005470:	a8c27bfd 	ldp	x29, x30, [sp], #32
    80005474:	d65f03c0 	ret

0000000080005478 <psci_features>:
    80005478:	b0000041 	adrp	x1, 8000e000 <psci_ns_context+0xb20>
    8000547c:	52b00002 	mov	w2, #0x80000000            	// #-2147483648
    80005480:	6b02001f 	cmp	w0, w2
    80005484:	b944b021 	ldr	w1, [x1, #1200]
    80005488:	54000260 	b.eq	800054d4 <psci_features+0x5c>  // b.none
    8000548c:	528c1742 	mov	w2, #0x60ba                	// #24762
    80005490:	f262001f 	tst	x0, #0x40000000
    80005494:	d3587403 	ubfx	x3, x0, #24, #6
    80005498:	72a002e2 	movk	w2, #0x17, lsl #16
    8000549c:	0a020022 	and	w2, w1, w2
    800054a0:	1a811041 	csel	w1, w2, w1, ne  // ne = any
    800054a4:	7100107f 	cmp	w3, #0x4
    800054a8:	540001a1 	b.ne	800054dc <psci_features+0x64>  // b.any
    800054ac:	d3505c04 	ubfx	x4, x0, #16, #8
    800054b0:	531f7c03 	lsr	w3, w0, #31
    800054b4:	36f80140 	tbz	w0, #31, 800054dc <psci_features+0x64>
    800054b8:	121b2802 	and	w2, w0, #0xffe0
    800054bc:	2a040042 	orr	w2, w2, w4
    800054c0:	350000e2 	cbnz	w2, 800054dc <psci_features+0x64>
    800054c4:	1ac02060 	lsl	w0, w3, w0
    800054c8:	6a01001f 	tst	w0, w1
    800054cc:	5a9f13e0 	csetm	w0, eq  // eq = none
    800054d0:	d65f03c0 	ret
    800054d4:	52800000 	mov	w0, #0x0                   	// #0
    800054d8:	d65f03c0 	ret
    800054dc:	12800000 	mov	w0, #0xffffffff            	// #-1
    800054e0:	d65f03c0 	ret
    800054e4:	00000000 	.inst	0x00000000 ; undefined

00000000800054e8 <psci_smc_handler>:
    800054e8:	36000f27 	tbz	w7, #0, 800056cc <psci_smc_handler+0x1e4>
    800054ec:	2a0003e4 	mov	w4, w0
    800054f0:	aa0103e0 	mov	x0, x1
    800054f4:	aa0203e1 	mov	x1, x2
    800054f8:	b0000042 	adrp	x2, 8000e000 <psci_ns_context+0xb20>
    800054fc:	52800025 	mov	w5, #0x1                   	// #1
    80005500:	b944b042 	ldr	w2, [x2, #1200]
    80005504:	1ac420a5 	lsl	w5, w5, w4
    80005508:	6a0200bf 	tst	w5, w2
    8000550c:	54000e00 	b.eq	800056cc <psci_smc_handler+0x1e4>  // b.none
    80005510:	a9be7bfd 	stp	x29, x30, [sp, #-32]!
    80005514:	528000e2 	mov	w2, #0x7                   	// #7
    80005518:	910003fd 	mov	x29, sp
    8000551c:	37f002a4 	tbnz	w4, #30, 80005570 <psci_smc_handler+0x88>
    80005520:	72b08002 	movk	w2, #0x8400, lsl #16
    80005524:	6b02009f 	cmp	w4, w2
    80005528:	540011a0 	b.eq	8000575c <psci_smc_handler+0x274>  // b.none
    8000552c:	540005a8 	b.hi	800055e0 <psci_smc_handler+0xf8>  // b.pmore
    80005530:	52800062 	mov	w2, #0x3                   	// #3
    80005534:	72b08002 	movk	w2, #0x8400, lsl #16
    80005538:	6b02009f 	cmp	w4, w2
    8000553c:	540014c0 	b.eq	800057d4 <psci_smc_handler+0x2ec>  // b.none
    80005540:	540009a9 	b.ls	80005674 <psci_smc_handler+0x18c>  // b.plast
    80005544:	528000a2 	mov	w2, #0x5                   	// #5
    80005548:	72b08002 	movk	w2, #0x8400, lsl #16
    8000554c:	6b02009f 	cmp	w4, w2
    80005550:	54001580 	b.eq	80005800 <psci_smc_handler+0x318>  // b.none
    80005554:	11000442 	add	w2, w2, #0x1
    80005558:	6b02009f 	cmp	w4, w2
    8000555c:	54000c81 	b.ne	800056ec <psci_smc_handler+0x204>  // b.any
    80005560:	910063e0 	add	x0, sp, #0x18
    80005564:	97fffeef 	bl	80005120 <psci_spd_migrate_info>
    80005568:	93407c00 	sxtw	x0, w0
    8000556c:	1400000f 	b	800055a8 <psci_smc_handler+0xc0>
    80005570:	72b88002 	movk	w2, #0xc400, lsl #16
    80005574:	6b02009f 	cmp	w4, w2
    80005578:	54000f20 	b.eq	8000575c <psci_smc_handler+0x274>  // b.none
    8000557c:	540001a9 	b.ls	800055b0 <psci_smc_handler+0xc8>  // b.plast
    80005580:	52800242 	mov	w2, #0x12                  	// #18
    80005584:	72b88002 	movk	w2, #0xc400, lsl #16
    80005588:	6b02009f 	cmp	w4, w2
    8000558c:	540010c0 	b.eq	800057a4 <psci_smc_handler+0x2bc>  // b.none
    80005590:	540005e9 	b.ls	8000564c <psci_smc_handler+0x164>  // b.plast
    80005594:	52800282 	mov	w2, #0x14                  	// #20
    80005598:	72b88002 	movk	w2, #0xc400, lsl #16
    8000559c:	6b02009f 	cmp	w4, w2
    800055a0:	54000901 	b.ne	800056c0 <psci_smc_handler+0x1d8>  // b.any
    800055a4:	940001dd 	bl	80005d18 <psci_mem_chk_range>
    800055a8:	a8c27bfd 	ldp	x29, x30, [sp], #32
    800055ac:	d65f03c0 	ret
    800055b0:	52800082 	mov	w2, #0x4                   	// #4
    800055b4:	72b88002 	movk	w2, #0xc400, lsl #16
    800055b8:	6b02009f 	cmp	w4, w2
    800055bc:	54000f80 	b.eq	800057ac <psci_smc_handler+0x2c4>  // b.none
    800055c0:	54000309 	b.ls	80005620 <psci_smc_handler+0x138>  // b.plast
    800055c4:	528000a1 	mov	w1, #0x5                   	// #5
    800055c8:	72b88001 	movk	w1, #0xc400, lsl #16
    800055cc:	6b01009f 	cmp	w4, w1
    800055d0:	54000781 	b.ne	800056c0 <psci_smc_handler+0x1d8>  // b.any
    800055d4:	97ffff71 	bl	80005398 <psci_migrate>
    800055d8:	93407c00 	sxtw	x0, w0
    800055dc:	17fffff3 	b	800055a8 <psci_smc_handler+0xc0>
    800055e0:	528001c2 	mov	w2, #0xe                   	// #14
    800055e4:	72b08002 	movk	w2, #0x8400, lsl #16
    800055e8:	6b02009f 	cmp	w4, w2
    800055ec:	54001000 	b.eq	800057ec <psci_smc_handler+0x304>  // b.none
    800055f0:	540009c9 	b.ls	80005728 <psci_smc_handler+0x240>  // b.plast
    800055f4:	52800262 	mov	w2, #0x13                  	// #19
    800055f8:	72b08002 	movk	w2, #0x8400, lsl #16
    800055fc:	6b02009f 	cmp	w4, w2
    80005600:	54000e60 	b.eq	800057cc <psci_smc_handler+0x2e4>  // b.none
    80005604:	11000442 	add	w2, w2, #0x1
    80005608:	6b02009f 	cmp	w4, w2
    8000560c:	54000801 	b.ne	8000570c <psci_smc_handler+0x224>  // b.any
    80005610:	2a0103e1 	mov	w1, w1
    80005614:	2a0003e0 	mov	w0, w0
    80005618:	940001c0 	bl	80005d18 <psci_mem_chk_range>
    8000561c:	17ffffe3 	b	800055a8 <psci_smc_handler+0xc0>
    80005620:	52800022 	mov	w2, #0x1                   	// #1
    80005624:	72b88002 	movk	w2, #0xc400, lsl #16
    80005628:	6b02009f 	cmp	w4, w2
    8000562c:	54000ac0 	b.eq	80005784 <psci_smc_handler+0x29c>  // b.none
    80005630:	11000842 	add	w2, w2, #0x2
    80005634:	6b02009f 	cmp	w4, w2
    80005638:	54000441 	b.ne	800056c0 <psci_smc_handler+0x1d8>  // b.any
    8000563c:	aa0303e2 	mov	x2, x3
    80005640:	97fffec6 	bl	80005158 <psci_cpu_on>
    80005644:	93407c00 	sxtw	x0, w0
    80005648:	17ffffd8 	b	800055a8 <psci_smc_handler+0xc0>
    8000564c:	528001a2 	mov	w2, #0xd                   	// #13
    80005650:	72b88002 	movk	w2, #0xc400, lsl #16
    80005654:	6b02009f 	cmp	w4, w2
    80005658:	54000900 	b.eq	80005778 <psci_smc_handler+0x290>  // b.none
    8000565c:	11000442 	add	w2, w2, #0x1
    80005660:	6b02009f 	cmp	w4, w2
    80005664:	540002e1 	b.ne	800056c0 <psci_smc_handler+0x1d8>  // b.any
    80005668:	97ffff1c 	bl	800052d8 <psci_system_suspend>
    8000566c:	93407c00 	sxtw	x0, w0
    80005670:	17ffffce 	b	800055a8 <psci_smc_handler+0xc0>
    80005674:	52800022 	mov	w2, #0x1                   	// #1
    80005678:	72b08002 	movk	w2, #0x8400, lsl #16
    8000567c:	6b02009f 	cmp	w4, w2
    80005680:	540009c0 	b.eq	800057b8 <psci_smc_handler+0x2d0>  // b.none
    80005684:	52800040 	mov	w0, #0x2                   	// #2
    80005688:	72b08000 	movk	w0, #0x8400, lsl #16
    8000568c:	6b00009f 	cmp	w4, w0
    80005690:	54000221 	b.ne	800056d4 <psci_smc_handler+0x1ec>  // b.any
    80005694:	52800040 	mov	w0, #0x2                   	// #2
    80005698:	97fffb40 	bl	80004398 <psci_do_cpu_off>
    8000569c:	93407c00 	sxtw	x0, w0
    800056a0:	17ffffc2 	b	800055a8 <psci_smc_handler+0xc0>
    800056a4:	52800100 	mov	w0, #0x8                   	// #8
    800056a8:	72b08000 	movk	w0, #0x8400, lsl #16
    800056ac:	6b00009f 	cmp	w4, w0
    800056b0:	54000b00 	b.eq	80005810 <psci_smc_handler+0x328>  // b.none
    800056b4:	11000400 	add	w0, w0, #0x1
    800056b8:	6b00009f 	cmp	w4, w0
    800056bc:	54000720 	b.eq	800057a0 <psci_smc_handler+0x2b8>  // b.none
    800056c0:	92800000 	mov	x0, #0xffffffffffffffff    	// #-1
    800056c4:	a8c27bfd 	ldp	x29, x30, [sp], #32
    800056c8:	d65f03c0 	ret
    800056cc:	92800000 	mov	x0, #0xffffffffffffffff    	// #-1
    800056d0:	d65f03c0 	ret
    800056d4:	52b08000 	mov	w0, #0x84000000            	// #-2080374784
    800056d8:	6b00009f 	cmp	w4, w0
    800056dc:	320083e0 	mov	w0, #0x10001               	// #65537
    800056e0:	a8c27bfd 	ldp	x29, x30, [sp], #32
    800056e4:	da9f0000 	csinv	x0, x0, xzr, eq  // eq = none
    800056e8:	d65f03c0 	ret
    800056ec:	52800082 	mov	w2, #0x4                   	// #4
    800056f0:	72b08002 	movk	w2, #0x8400, lsl #16
    800056f4:	6b02009f 	cmp	w4, w2
    800056f8:	54fffe41 	b.ne	800056c0 <psci_smc_handler+0x1d8>  // b.any
    800056fc:	2a0003e0 	mov	w0, w0
    80005700:	97ffff10 	bl	80005340 <psci_affinity_info>
    80005704:	93407c00 	sxtw	x0, w0
    80005708:	17ffffa8 	b	800055a8 <psci_smc_handler+0xc0>
    8000570c:	52800242 	mov	w2, #0x12                  	// #18
    80005710:	72b08002 	movk	w2, #0x8400, lsl #16
    80005714:	6b02009f 	cmp	w4, w2
    80005718:	54fffd41 	b.ne	800056c0 <psci_smc_handler+0x1d8>  // b.any
    8000571c:	2a0103e1 	mov	w1, w1
    80005720:	9400013c 	bl	80005c10 <psci_system_reset2>
    80005724:	17ffffa1 	b	800055a8 <psci_smc_handler+0xc0>
    80005728:	52800142 	mov	w2, #0xa                   	// #10
    8000572c:	72b08002 	movk	w2, #0x8400, lsl #16
    80005730:	6b02009f 	cmp	w4, w2
    80005734:	54000300 	b.eq	80005794 <psci_smc_handler+0x2ac>  // b.none
    80005738:	54fffb69 	b.ls	800056a4 <psci_smc_handler+0x1bc>  // b.plast
    8000573c:	528001a2 	mov	w2, #0xd                   	// #13
    80005740:	72b08002 	movk	w2, #0x8400, lsl #16
    80005744:	6b02009f 	cmp	w4, w2
    80005748:	54fffbc1 	b.ne	800056c0 <psci_smc_handler+0x1d8>  // b.any
    8000574c:	2a0003e0 	mov	w0, w0
    80005750:	97ffff34 	bl	80005420 <psci_node_hw_state>
    80005754:	93407c00 	sxtw	x0, w0
    80005758:	17ffff94 	b	800055a8 <psci_smc_handler+0xc0>
    8000575c:	910063e0 	add	x0, sp, #0x18
    80005760:	97fffe70 	bl	80005120 <psci_spd_migrate_info>
    80005764:	f9400fe1 	ldr	x1, [sp, #24]
    80005768:	7100041f 	cmp	w0, #0x1
    8000576c:	92800022 	mov	x2, #0xfffffffffffffffe    	// #-2
    80005770:	9a829020 	csel	x0, x1, x2, ls  // ls = plast
    80005774:	17ffff8d 	b	800055a8 <psci_smc_handler+0xc0>
    80005778:	97ffff2a 	bl	80005420 <psci_node_hw_state>
    8000577c:	93407c00 	sxtw	x0, w0
    80005780:	17ffff8a 	b	800055a8 <psci_smc_handler+0xc0>
    80005784:	aa0303e2 	mov	x2, x3
    80005788:	97fffe8c 	bl	800051b8 <psci_cpu_suspend>
    8000578c:	93407c00 	sxtw	x0, w0
    80005790:	17ffff86 	b	800055a8 <psci_smc_handler+0xc0>
    80005794:	97ffff39 	bl	80005478 <psci_features>
    80005798:	93407c00 	sxtw	x0, w0
    8000579c:	17ffff83 	b	800055a8 <psci_smc_handler+0xc0>
    800057a0:	9400010e 	bl	80005bd8 <psci_system_reset>
    800057a4:	9400011b 	bl	80005c10 <psci_system_reset2>
    800057a8:	17ffff80 	b	800055a8 <psci_smc_handler+0xc0>
    800057ac:	97fffee5 	bl	80005340 <psci_affinity_info>
    800057b0:	93407c00 	sxtw	x0, w0
    800057b4:	17ffff7d 	b	800055a8 <psci_smc_handler+0xc0>
    800057b8:	2a0303e2 	mov	w2, w3
    800057bc:	2a0103e1 	mov	w1, w1
    800057c0:	97fffe7e 	bl	800051b8 <psci_cpu_suspend>
    800057c4:	93407c00 	sxtw	x0, w0
    800057c8:	17ffff78 	b	800055a8 <psci_smc_handler+0xc0>
    800057cc:	94000139 	bl	80005cb0 <psci_mem_protect>
    800057d0:	17ffff76 	b	800055a8 <psci_smc_handler+0xc0>
    800057d4:	2a0303e2 	mov	w2, w3
    800057d8:	2a0103e1 	mov	w1, w1
    800057dc:	2a0003e0 	mov	w0, w0
    800057e0:	97fffe5e 	bl	80005158 <psci_cpu_on>
    800057e4:	93407c00 	sxtw	x0, w0
    800057e8:	17ffff70 	b	800055a8 <psci_smc_handler+0xc0>
    800057ec:	2a0103e1 	mov	w1, w1
    800057f0:	2a0003e0 	mov	w0, w0
    800057f4:	97fffeb9 	bl	800052d8 <psci_system_suspend>
    800057f8:	93407c00 	sxtw	x0, w0
    800057fc:	17ffff6b 	b	800055a8 <psci_smc_handler+0xc0>
    80005800:	2a0003e0 	mov	w0, w0
    80005804:	97fffee5 	bl	80005398 <psci_migrate>
    80005808:	93407c00 	sxtw	x0, w0
    8000580c:	17ffff67 	b	800055a8 <psci_smc_handler+0xc0>
    80005810:	940000e4 	bl	80005ba0 <psci_system_off>
    80005814:	00000000 	.inst	0x00000000 ; undefined

0000000080005818 <psci_setup>:
    80005818:	a9b67bfd 	stp	x29, x30, [sp, #-160]!
    8000581c:	910003fd 	mov	x29, sp
    80005820:	a90153f3 	stp	x19, x20, [sp, #16]
    80005824:	a9025bf5 	stp	x21, x22, [sp, #32]
    80005828:	aa0003f6 	mov	x22, x0
    8000582c:	a90363f7 	stp	x23, x24, [sp, #48]
    80005830:	a9046bf9 	stp	x25, x26, [sp, #64]
    80005834:	a90573fb 	stp	x27, x28, [sp, #80]
    80005838:	97ffec7a 	bl	80000a20 <plat_get_syscnt_freq2>
    8000583c:	2a0003e0 	mov	w0, w0
    80005840:	d51be000 	msr	cntfrq_el0, x0
    80005844:	94000388 	bl	80006664 <init_cpu_ops>
    80005848:	d0000094 	adrp	x20, 80017000 <sc_ipc_bakery_lock>
    8000584c:	97ffee97 	bl	800012a8 <plat_get_power_domain_tree_desc>
    80005850:	b0000055 	adrp	x21, 8000e000 <psci_ns_context+0xb20>
    80005854:	90000057 	adrp	x23, 8000d000 <imx_gicv3_ctx+0x26c0>
    80005858:	aa0003e6 	mov	x6, x0
    8000585c:	91016294 	add	x20, x20, #0x58
    80005860:	911102b5 	add	x21, x21, #0x440
    80005864:	911382f7 	add	x23, x23, #0x4e0
    80005868:	5280001b 	mov	w27, #0x0                   	// #0
    8000586c:	52800013 	mov	w19, #0x0                   	// #0
    80005870:	52800025 	mov	w5, #0x1                   	// #1
    80005874:	5280005a 	mov	w26, #0x2                   	// #2
    80005878:	9280000b 	mov	x11, #0xffffffffffffffff    	// #-1
    8000587c:	2a1303e0 	mov	w0, w19
    80005880:	340008a5 	cbz	w5, 80005994 <psci_setup+0x17c>
    80005884:	510004a3 	sub	w3, w5, #0x1
    80005888:	8b3bc0c8 	add	x8, x6, w27, sxtw
    8000588c:	0b1b0063 	add	w3, w3, w27
    80005890:	5100077c 	sub	w28, w27, #0x1
    80005894:	52800007 	mov	w7, #0x0                   	// #0
    80005898:	39400109 	ldrb	w9, [x8]
    8000589c:	0b13012a 	add	w10, w9, w19
    800058a0:	6b13015f 	cmp	w10, w19
    800058a4:	54000689 	b.ls	80005974 <psci_setup+0x15c>  // b.plast
    800058a8:	12001f4c 	and	w12, w26, #0xff
    800058ac:	52800039 	mov	w25, #0x1                   	// #1
    800058b0:	52800078 	mov	w24, #0x3                   	// #3
    800058b4:	14000009 	b	800058d8 <psci_setup+0xc0>
    800058b8:	52800040 	mov	w0, #0x2                   	// #2
    800058bc:	b900083c 	str	w28, [x1, #8]
    800058c0:	39003020 	strb	w0, [x1, #12]
    800058c4:	3900342c 	strb	w12, [x1, #13]
    800058c8:	39003833 	strb	w19, [x1, #14]
    800058cc:	11000673 	add	w19, w19, #0x1
    800058d0:	6b0a027f 	cmp	w19, w10
    800058d4:	54000500 	b.eq	80005974 <psci_setup+0x15c>  // b.none
    800058d8:	d37c1e61 	ubfiz	x1, x19, #4, #8
    800058dc:	8b010281 	add	x1, x20, x1
    800058e0:	35fffeda 	cbnz	w26, 800058b8 <psci_setup+0xa0>
    800058e4:	d37c1e61 	ubfiz	x1, x19, #4, #8
    800058e8:	12001e64 	and	w4, w19, #0xff
    800058ec:	8b0102a2 	add	x2, x21, x1
    800058f0:	2a0403e0 	mov	w0, w4
    800058f4:	b90067e4 	str	w4, [sp, #100]
    800058f8:	11000673 	add	w19, w19, #0x1
    800058fc:	f8216aab 	str	x11, [x21, x1]
    80005900:	b900085c 	str	w28, [x2, #8]
    80005904:	f90037e6 	str	x6, [sp, #104]
    80005908:	290e27e5 	stp	w5, w9, [sp, #112]
    8000590c:	f9003fe8 	str	x8, [sp, #120]
    80005910:	291033e7 	stp	w7, w12, [sp, #128]
    80005914:	29110fea 	stp	w10, w3, [sp, #136]
    80005918:	9400033d 	bl	8000660c <_cpu_data_by_index>
    8000591c:	aa0003e2 	mov	x2, x0
    80005920:	91006000 	add	x0, x0, #0x18
    80005924:	5280004d 	mov	w13, #0x2                   	// #2
    80005928:	d2800181 	mov	x1, #0xc                   	// #12
    8000592c:	b9001859 	str	w25, [x2, #24]
    80005930:	b9000418 	str	w24, [x0, #4]
    80005934:	3900200d 	strb	w13, [x0, #8]
    80005938:	9400041b 	bl	800069a4 <flush_dcache_range>
    8000593c:	b94067e4 	ldr	w4, [sp, #100]
    80005940:	52804601 	mov	w1, #0x230                 	// #560
    80005944:	52800022 	mov	w2, #0x1                   	// #1
    80005948:	2a0403e0 	mov	w0, w4
    8000594c:	9ba15c81 	umaddl	x1, w4, w1, x23
    80005950:	97fff904 	bl	80003d60 <cm_set_context_by_index>
    80005954:	29510fea 	ldp	w10, w3, [sp, #136]
    80005958:	9280000b 	mov	x11, #0xffffffffffffffff    	// #-1
    8000595c:	294e27e5 	ldp	w5, w9, [sp, #112]
    80005960:	6b0a027f 	cmp	w19, w10
    80005964:	295033e7 	ldp	w7, w12, [sp, #128]
    80005968:	f94037e6 	ldr	x6, [sp, #104]
    8000596c:	f9403fe8 	ldr	x8, [sp, #120]
    80005970:	54fffb41 	b.ne	800058d8 <psci_setup+0xc0>  // b.any
    80005974:	1100079c 	add	w28, w28, #0x1
    80005978:	0b0900e7 	add	w7, w7, w9
    8000597c:	6b1c007f 	cmp	w3, w28
    80005980:	91000508 	add	x8, x8, #0x1
    80005984:	54fff8a1 	b.ne	80005898 <psci_setup+0x80>  // b.any
    80005988:	0b05037b 	add	w27, w27, w5
    8000598c:	2a1303e0 	mov	w0, w19
    80005990:	2a0703e5 	mov	w5, w7
    80005994:	7100075a 	subs	w26, w26, #0x1
    80005998:	52800013 	mov	w19, #0x0                   	// #0
    8000599c:	54fff700 	b.eq	8000587c <psci_setup+0x64>  // b.none
    800059a0:	3100075f 	cmn	w26, #0x1
    800059a4:	54000ea1 	b.ne	80005b78 <psci_setup+0x360>  // b.any
    800059a8:	52800017 	mov	w23, #0x0                   	// #0
    800059ac:	52800018 	mov	w24, #0x0                   	// #0
    800059b0:	52800013 	mov	w19, #0x0                   	// #0
    800059b4:	2a1303e0 	mov	w0, w19
    800059b8:	910263e2 	add	x2, sp, #0x98
    800059bc:	52800041 	mov	w1, #0x2                   	// #2
    800059c0:	97fffc4c 	bl	80004af0 <psci_get_parent_pwr_domain_nodes>
    800059c4:	2a1703e0 	mov	w0, w23
    800059c8:	b9409ff7 	ldr	w23, [sp, #156]
    800059cc:	6b17001f 	cmp	w0, w23
    800059d0:	2a1703e0 	mov	w0, w23
    800059d4:	54000060 	b.eq	800059e0 <psci_setup+0x1c8>  // b.none
    800059d8:	d37cec01 	lsl	x1, x0, #4
    800059dc:	b8216a93 	str	w19, [x20, x1]
    800059e0:	8b001280 	add	x0, x20, x0, lsl #4
    800059e4:	b9409be1 	ldr	w1, [sp, #152]
    800059e8:	6b01031f 	cmp	w24, w1
    800059ec:	2a0103f8 	mov	w24, w1
    800059f0:	b9400402 	ldr	w2, [x0, #4]
    800059f4:	2a0103e1 	mov	w1, w1
    800059f8:	11000442 	add	w2, w2, #0x1
    800059fc:	b9000402 	str	w2, [x0, #4]
    80005a00:	8b011283 	add	x3, x20, x1, lsl #4
    80005a04:	d37cec21 	lsl	x1, x1, #4
    80005a08:	54000040 	b.eq	80005a10 <psci_setup+0x1f8>  // b.none
    80005a0c:	b8216a93 	str	w19, [x20, x1]
    80005a10:	b9400460 	ldr	w0, [x3, #4]
    80005a14:	11000673 	add	w19, w19, #0x1
    80005a18:	71001a7f 	cmp	w19, #0x6
    80005a1c:	11000400 	add	w0, w0, #0x1
    80005a20:	b9000460 	str	w0, [x3, #4]
    80005a24:	54fffc81 	b.ne	800059b4 <psci_setup+0x19c>  // b.any
    80005a28:	d53800b3 	mrs	x19, mpidr_el1
    80005a2c:	940001aa 	bl	800060d4 <plat_my_core_pos>
    80005a30:	d37c7c00 	ubfiz	x0, x0, #4, #32
    80005a34:	92409e62 	and	x2, x19, #0xffffffffff
    80005a38:	b0000053 	adrp	x19, 8000e000 <psci_ns_context+0xb20>
    80005a3c:	9260dc42 	and	x2, x2, #0xffffffff00ffffff
    80005a40:	91128274 	add	x20, x19, #0x4a0
    80005a44:	f8206aa2 	str	x2, [x21, x0]
    80005a48:	97fffbfc 	bl	80004a38 <psci_init_req_local_pwr_states>
    80005a4c:	52800040 	mov	w0, #0x2                   	// #2
    80005a50:	97fffc38 	bl	80004b30 <psci_set_pwr_domains_to_run>
    80005a54:	f94006c0 	ldr	x0, [x22, #8]
    80005a58:	aa1403e1 	mov	x1, x20
    80005a5c:	97ffedd5 	bl	800011b0 <plat_setup_psci_ops>
    80005a60:	aa1403e0 	mov	x0, x20
    80005a64:	d2800101 	mov	x1, #0x8                   	// #8
    80005a68:	940003cf 	bl	800069a4 <flush_dcache_range>
    80005a6c:	f9425261 	ldr	x1, [x19, #1184]
    80005a70:	52808223 	mov	w3, #0x411                 	// #1041
    80005a74:	2a0303e4 	mov	w4, w3
    80005a78:	b0000040 	adrp	x0, 8000e000 <psci_ns_context+0xb20>
    80005a7c:	528082a2 	mov	w2, #0x415                 	// #1045
    80005a80:	a9409423 	ldp	x3, x5, [x1, #8]
    80005a84:	f10000bf 	cmp	x5, #0x0
    80005a88:	1a841042 	csel	w2, w2, w4, ne  // ne = any
    80005a8c:	b904b002 	str	w2, [x0, #1200]
    80005a90:	b40000c3 	cbz	x3, 80005aa8 <psci_setup+0x290>
    80005a94:	f9401422 	ldr	x2, [x1, #40]
    80005a98:	b4000082 	cbz	x2, 80005aa8 <psci_setup+0x290>
    80005a9c:	b944b002 	ldr	w2, [x0, #1200]
    80005aa0:	321d0042 	orr	w2, w2, #0x8
    80005aa4:	b904b002 	str	w2, [x0, #1200]
    80005aa8:	f9401022 	ldr	x2, [x1, #32]
    80005aac:	b4000162 	cbz	x2, 80005ad8 <psci_setup+0x2c0>
    80005ab0:	f9401822 	ldr	x2, [x1, #48]
    80005ab4:	b4000122 	cbz	x2, 80005ad8 <psci_setup+0x2c0>
    80005ab8:	f9403023 	ldr	x3, [x1, #96]
    80005abc:	52880044 	mov	w4, #0x4002                	// #16386
    80005ac0:	b944b002 	ldr	w2, [x0, #1200]
    80005ac4:	f100007f 	cmp	x3, #0x0
    80005ac8:	321f0043 	orr	w3, w2, #0x2
    80005acc:	2a040042 	orr	w2, w2, w4
    80005ad0:	1a831042 	csel	w2, w2, w3, ne  // ne = any
    80005ad4:	b904b002 	str	w2, [x0, #1200]
    80005ad8:	f9402022 	ldr	x2, [x1, #64]
    80005adc:	b4000082 	cbz	x2, 80005aec <psci_setup+0x2d4>
    80005ae0:	b944b002 	ldr	w2, [x0, #1200]
    80005ae4:	32180042 	orr	w2, w2, #0x100
    80005ae8:	b904b002 	str	w2, [x0, #1200]
    80005aec:	f9402422 	ldr	x2, [x1, #72]
    80005af0:	b4000082 	cbz	x2, 80005b00 <psci_setup+0x2e8>
    80005af4:	b944b002 	ldr	w2, [x0, #1200]
    80005af8:	32170042 	orr	w2, w2, #0x200
    80005afc:	b904b002 	str	w2, [x0, #1200]
    80005b00:	f9403c22 	ldr	x2, [x1, #120]
    80005b04:	b4000082 	cbz	x2, 80005b14 <psci_setup+0x2fc>
    80005b08:	b944b002 	ldr	w2, [x0, #1200]
    80005b0c:	32130042 	orr	w2, w2, #0x2000
    80005b10:	b904b002 	str	w2, [x0, #1200]
    80005b14:	f9404422 	ldr	x2, [x1, #136]
    80005b18:	b40000c2 	cbz	x2, 80005b30 <psci_setup+0x318>
    80005b1c:	f9404822 	ldr	x2, [x1, #144]
    80005b20:	b4000082 	cbz	x2, 80005b30 <psci_setup+0x318>
    80005b24:	b944b002 	ldr	w2, [x0, #1200]
    80005b28:	320d0042 	orr	w2, w2, #0x80000
    80005b2c:	b904b002 	str	w2, [x0, #1200]
    80005b30:	f9404022 	ldr	x2, [x1, #128]
    80005b34:	b4000082 	cbz	x2, 80005b44 <psci_setup+0x32c>
    80005b38:	b944b002 	ldr	w2, [x0, #1200]
    80005b3c:	320c0042 	orr	w2, w2, #0x100000
    80005b40:	b904b002 	str	w2, [x0, #1200]
    80005b44:	f9404c21 	ldr	x1, [x1, #152]
    80005b48:	b4000081 	cbz	x1, 80005b58 <psci_setup+0x340>
    80005b4c:	b944b001 	ldr	w1, [x0, #1200]
    80005b50:	320e0021 	orr	w1, w1, #0x40000
    80005b54:	b904b001 	str	w1, [x0, #1200]
    80005b58:	52800000 	mov	w0, #0x0                   	// #0
    80005b5c:	a94153f3 	ldp	x19, x20, [sp, #16]
    80005b60:	a9425bf5 	ldp	x21, x22, [sp, #32]
    80005b64:	a94363f7 	ldp	x23, x24, [sp, #48]
    80005b68:	a9446bf9 	ldp	x25, x26, [sp, #64]
    80005b6c:	a94573fb 	ldp	x27, x28, [sp, #80]
    80005b70:	a8ca7bfd 	ldp	x29, x30, [sp], #160
    80005b74:	d65f03c0 	ret
    80005b78:	2a0003f3 	mov	w19, w0
    80005b7c:	17ffff40 	b	8000587c <psci_setup+0x64>

0000000080005b80 <psci_arch_setup>:
    80005b80:	a9bf7bfd 	stp	x29, x30, [sp, #-16]!
    80005b84:	910003fd 	mov	x29, sp
    80005b88:	97ffeba6 	bl	80000a20 <plat_get_syscnt_freq2>
    80005b8c:	2a0003e0 	mov	w0, w0
    80005b90:	d51be000 	msr	cntfrq_el0, x0
    80005b94:	a8c17bfd 	ldp	x29, x30, [sp], #16
    80005b98:	140002b3 	b	80006664 <init_cpu_ops>
    80005b9c:	00000000 	.inst	0x00000000 ; undefined

0000000080005ba0 <psci_system_off>:
    80005ba0:	a9bf7bfd 	stp	x29, x30, [sp, #-16]!
    80005ba4:	910003fd 	mov	x29, sp
    80005ba8:	97fffd68 	bl	80005148 <psci_print_power_domain_map>
    80005bac:	b0000040 	adrp	x0, 8000e000 <psci_ns_context+0xb20>
    80005bb0:	f9425400 	ldr	x0, [x0, #1192]
    80005bb4:	b4000080 	cbz	x0, 80005bc4 <psci_system_off+0x24>
    80005bb8:	f9401c00 	ldr	x0, [x0, #56]
    80005bbc:	b4000040 	cbz	x0, 80005bc4 <psci_system_off+0x24>
    80005bc0:	d63f0000 	blr	x0
    80005bc4:	94000207 	bl	800063e0 <console_flush>
    80005bc8:	b0000040 	adrp	x0, 8000e000 <psci_ns_context+0xb20>
    80005bcc:	f9425000 	ldr	x0, [x0, #1184]
    80005bd0:	f9402000 	ldr	x0, [x0, #64]
    80005bd4:	d63f0000 	blr	x0

0000000080005bd8 <psci_system_reset>:
    80005bd8:	a9bf7bfd 	stp	x29, x30, [sp, #-16]!
    80005bdc:	910003fd 	mov	x29, sp
    80005be0:	97fffd5a 	bl	80005148 <psci_print_power_domain_map>
    80005be4:	b0000040 	adrp	x0, 8000e000 <psci_ns_context+0xb20>
    80005be8:	f9425400 	ldr	x0, [x0, #1192]
    80005bec:	b4000080 	cbz	x0, 80005bfc <psci_system_reset+0x24>
    80005bf0:	f9402000 	ldr	x0, [x0, #64]
    80005bf4:	b4000040 	cbz	x0, 80005bfc <psci_system_reset+0x24>
    80005bf8:	d63f0000 	blr	x0
    80005bfc:	940001f9 	bl	800063e0 <console_flush>
    80005c00:	b0000040 	adrp	x0, 8000e000 <psci_ns_context+0xb20>
    80005c04:	f9425000 	ldr	x0, [x0, #1184]
    80005c08:	f9402400 	ldr	x0, [x0, #72]
    80005c0c:	d63f0000 	blr	x0

0000000080005c10 <psci_system_reset2>:
    80005c10:	a9bd7bfd 	stp	x29, x30, [sp, #-48]!
    80005c14:	910003fd 	mov	x29, sp
    80005c18:	a90153f3 	stp	x19, x20, [sp, #16]
    80005c1c:	2a0003f3 	mov	w19, w0
    80005c20:	a9025bf5 	stp	x21, x22, [sp, #32]
    80005c24:	aa0103f5 	mov	x21, x1
    80005c28:	531f7e76 	lsr	w22, w19, #31
    80005c2c:	97fffd47 	bl	80005148 <psci_print_power_domain_map>
    80005c30:	36f80293 	tbz	w19, #31, 80005c80 <psci_system_reset2+0x70>
    80005c34:	b0000054 	adrp	x20, 8000e000 <psci_ns_context+0xb20>
    80005c38:	b0000040 	adrp	x0, 8000e000 <psci_ns_context+0xb20>
    80005c3c:	f9425400 	ldr	x0, [x0, #1192]
    80005c40:	b4000080 	cbz	x0, 80005c50 <psci_system_reset2+0x40>
    80005c44:	f9402000 	ldr	x0, [x0, #64]
    80005c48:	b4000040 	cbz	x0, 80005c50 <psci_system_reset2+0x40>
    80005c4c:	d63f0000 	blr	x0
    80005c50:	940001e4 	bl	800063e0 <console_flush>
    80005c54:	f9425283 	ldr	x3, [x20, #1184]
    80005c58:	aa1503e2 	mov	x2, x21
    80005c5c:	2a1303e1 	mov	w1, w19
    80005c60:	2a1603e0 	mov	w0, w22
    80005c64:	f9404c63 	ldr	x3, [x3, #152]
    80005c68:	d63f0060 	blr	x3
    80005c6c:	93407c00 	sxtw	x0, w0
    80005c70:	a94153f3 	ldp	x19, x20, [sp, #16]
    80005c74:	a9425bf5 	ldp	x21, x22, [sp, #32]
    80005c78:	a8c37bfd 	ldp	x29, x30, [sp], #48
    80005c7c:	d65f03c0 	ret
    80005c80:	92800020 	mov	x0, #0xfffffffffffffffe    	// #-2
    80005c84:	35ffff73 	cbnz	w19, 80005c70 <psci_system_reset2+0x60>
    80005c88:	b0000054 	adrp	x20, 8000e000 <psci_ns_context+0xb20>
    80005c8c:	f9425280 	ldr	x0, [x20, #1184]
    80005c90:	f9404801 	ldr	x1, [x0, #144]
    80005c94:	b4fffd21 	cbz	x1, 80005c38 <psci_system_reset2+0x28>
    80005c98:	52800000 	mov	w0, #0x0                   	// #0
    80005c9c:	d63f0020 	blr	x1
    80005ca0:	36fffcc0 	tbz	w0, #31, 80005c38 <psci_system_reset2+0x28>
    80005ca4:	92800000 	mov	x0, #0xffffffffffffffff    	// #-1
    80005ca8:	17fffff2 	b	80005c70 <psci_system_reset2+0x60>
    80005cac:	00000000 	.inst	0x00000000 ; undefined

0000000080005cb0 <psci_mem_protect>:
    80005cb0:	a9bd7bfd 	stp	x29, x30, [sp, #-48]!
    80005cb4:	910003fd 	mov	x29, sp
    80005cb8:	a90153f3 	stp	x19, x20, [sp, #16]
    80005cbc:	b0000054 	adrp	x20, 8000e000 <psci_ns_context+0xb20>
    80005cc0:	2a0003f3 	mov	w19, w0
    80005cc4:	f9425281 	ldr	x1, [x20, #1184]
    80005cc8:	9100b3e0 	add	x0, sp, #0x2c
    80005ccc:	f9404421 	ldr	x1, [x1, #136]
    80005cd0:	d63f0020 	blr	x1
    80005cd4:	37f80180 	tbnz	w0, #31, 80005d04 <psci_mem_protect+0x54>
    80005cd8:	f9425281 	ldr	x1, [x20, #1184]
    80005cdc:	2a1303e0 	mov	w0, w19
    80005ce0:	f9404821 	ldr	x1, [x1, #144]
    80005ce4:	d63f0020 	blr	x1
    80005ce8:	37f800e0 	tbnz	w0, #31, 80005d04 <psci_mem_protect+0x54>
    80005cec:	b9402fe0 	ldr	w0, [sp, #44]
    80005cf0:	a94153f3 	ldp	x19, x20, [sp, #16]
    80005cf4:	7100001f 	cmp	w0, #0x0
    80005cf8:	9a9f07e0 	cset	x0, ne  // ne = any
    80005cfc:	a8c37bfd 	ldp	x29, x30, [sp], #48
    80005d00:	d65f03c0 	ret
    80005d04:	92800000 	mov	x0, #0xffffffffffffffff    	// #-1
    80005d08:	a94153f3 	ldp	x19, x20, [sp, #16]
    80005d0c:	a8c37bfd 	ldp	x29, x30, [sp], #48
    80005d10:	d65f03c0 	ret
    80005d14:	00000000 	.inst	0x00000000 ; undefined

0000000080005d18 <psci_mem_chk_range>:
    80005d18:	b4000221 	cbz	x1, 80005d5c <psci_mem_chk_range+0x44>
    80005d1c:	cb0103e2 	neg	x2, x1
    80005d20:	eb00005f 	cmp	x2, x0
    80005d24:	540001c3 	b.cc	80005d5c <psci_mem_chk_range+0x44>  // b.lo, b.ul, b.last
    80005d28:	a9bf7bfd 	stp	x29, x30, [sp, #-16]!
    80005d2c:	b0000042 	adrp	x2, 8000e000 <psci_ns_context+0xb20>
    80005d30:	910003fd 	mov	x29, sp
    80005d34:	f9425042 	ldr	x2, [x2, #1184]
    80005d38:	f9404042 	ldr	x2, [x2, #128]
    80005d3c:	d63f0040 	blr	x2
    80005d40:	37f80080 	tbnz	w0, #31, 80005d50 <psci_mem_chk_range+0x38>
    80005d44:	d2800000 	mov	x0, #0x0                   	// #0
    80005d48:	a8c17bfd 	ldp	x29, x30, [sp], #16
    80005d4c:	d65f03c0 	ret
    80005d50:	92800040 	mov	x0, #0xfffffffffffffffd    	// #-3
    80005d54:	a8c17bfd 	ldp	x29, x30, [sp], #16
    80005d58:	d65f03c0 	ret
    80005d5c:	92800040 	mov	x0, #0xfffffffffffffffd    	// #-3
    80005d60:	d65f03c0 	ret
    80005d64:	00000000 	.inst	0x00000000 ; undefined

0000000080005d68 <bakery_lock_get>:
    80005d68:	a9be7bfd 	stp	x29, x30, [sp, #-32]!
    80005d6c:	910003fd 	mov	x29, sp
    80005d70:	f9000bf3 	str	x19, [sp, #16]
    80005d74:	aa0003f3 	mov	x19, x0
    80005d78:	940000d7 	bl	800060d4 <plat_my_core_pos>
    80005d7c:	d37f7c04 	ubfiz	x4, x0, #1, #32
    80005d80:	52800021 	mov	w1, #0x1                   	// #1
    80005d84:	52800003 	mov	w3, #0x0                   	// #0
    80005d88:	52800002 	mov	w2, #0x0                   	// #0
    80005d8c:	78246a61 	strh	w1, [x19, x4]
    80005d90:	2a0203e1 	mov	w1, w2
    80005d94:	11000442 	add	w2, w2, #0x1
    80005d98:	78617a61 	ldrh	w1, [x19, x1, lsl #1]
    80005d9c:	d3413c21 	ubfx	x1, x1, #1, #15
    80005da0:	6b01007f 	cmp	w3, w1
    80005da4:	1a812063 	csel	w3, w3, w1, cs  // cs = hs, nlast
    80005da8:	7100185f 	cmp	w2, #0x6
    80005dac:	54ffff21 	b.ne	80005d90 <bakery_lock_get+0x28>  // b.any
    80005db0:	11000463 	add	w3, w3, #0x1
    80005db4:	52800005 	mov	w5, #0x0                   	// #0
    80005db8:	2a032006 	orr	w6, w0, w3, lsl #8
    80005dbc:	531f3863 	ubfiz	w3, w3, #1, #15
    80005dc0:	78246a63 	strh	w3, [x19, x4]
    80005dc4:	d503201f 	nop
    80005dc8:	6b05001f 	cmp	w0, w5
    80005dcc:	540001a0 	b.eq	80005e00 <bakery_lock_get+0x98>  // b.none
    80005dd0:	d37f7ca2 	ubfiz	x2, x5, #1, #32
    80005dd4:	d503201f 	nop
    80005dd8:	78626a61 	ldrh	w1, [x19, x2]
    80005ddc:	8b020264 	add	x4, x19, x2
    80005de0:	12003c23 	and	w3, w1, #0xffff
    80005de4:	3707ffa1 	tbnz	w1, #0, 80005dd8 <bakery_lock_get+0x70>
    80005de8:	6b4307ff 	cmp	wzr, w3, lsr #1
    80005dec:	53017c63 	lsr	w3, w3, #1
    80005df0:	54000080 	b.eq	80005e00 <bakery_lock_get+0x98>  // b.none
    80005df4:	2a0320a1 	orr	w1, w5, w3, lsl #8
    80005df8:	6b06003f 	cmp	w1, w6
    80005dfc:	54000103 	b.cc	80005e1c <bakery_lock_get+0xb4>  // b.lo, b.ul, b.last
    80005e00:	110004a5 	add	w5, w5, #0x1
    80005e04:	710018bf 	cmp	w5, #0x6
    80005e08:	54fffe01 	b.ne	80005dc8 <bakery_lock_get+0x60>  // b.any
    80005e0c:	d5033dbf 	dmb	ld
    80005e10:	f9400bf3 	ldr	x19, [sp, #16]
    80005e14:	a8c27bfd 	ldp	x29, x30, [sp], #32
    80005e18:	d65f03c0 	ret
    80005e1c:	d503205f 	wfe
    80005e20:	79400081 	ldrh	w1, [x4]
    80005e24:	d3413c21 	ubfx	x1, x1, #1, #15
    80005e28:	6b01007f 	cmp	w3, w1
    80005e2c:	54fffea1 	b.ne	80005e00 <bakery_lock_get+0x98>  // b.any
    80005e30:	d503205f 	wfe
    80005e34:	79400081 	ldrh	w1, [x4]
    80005e38:	d3413c21 	ubfx	x1, x1, #1, #15
    80005e3c:	6b01007f 	cmp	w3, w1
    80005e40:	54fffee0 	b.eq	80005e1c <bakery_lock_get+0xb4>  // b.none
    80005e44:	17ffffef 	b	80005e00 <bakery_lock_get+0x98>

0000000080005e48 <bakery_lock_release>:
    80005e48:	a9be7bfd 	stp	x29, x30, [sp, #-32]!
    80005e4c:	910003fd 	mov	x29, sp
    80005e50:	f9000bf3 	str	x19, [sp, #16]
    80005e54:	aa0003f3 	mov	x19, x0
    80005e58:	9400009f 	bl	800060d4 <plat_my_core_pos>
    80005e5c:	d5033ebf 	dmb	st
    80005e60:	2a0003e1 	mov	w1, w0
    80005e64:	78217a7f 	strh	wzr, [x19, x1, lsl #1]
    80005e68:	d5033f9f 	dsb	sy
    80005e6c:	d503209f 	sev
    80005e70:	f9400bf3 	ldr	x19, [sp, #16]
    80005e74:	a8c27bfd 	ldp	x29, x30, [sp], #32
    80005e78:	d65f03c0 	ret
    80005e7c:	00000000 	.inst	0x00000000 ; undefined

0000000080005e80 <spe_drain_buffers_hook>:
    80005e80:	d5380501 	mrs	x1, id_aa64dfr0_el1
    80005e84:	d3608c21 	ubfx	x1, x1, #32, #4
    80005e88:	92800000 	mov	x0, #0xffffffffffffffff    	// #-1
    80005e8c:	f100043f 	cmp	x1, #0x1
    80005e90:	54000040 	b.eq	80005e98 <spe_drain_buffers_hook+0x18>  // b.none
    80005e94:	d65f03c0 	ret
    80005e98:	d503223f 	psb	csync
    80005e9c:	d503379f 	dsb	nsh
    80005ea0:	d2800000 	mov	x0, #0x0                   	// #0
    80005ea4:	d65f03c0 	ret

0000000080005ea8 <spe_enable>:
    80005ea8:	d5380501 	mrs	x1, id_aa64dfr0_el1
    80005eac:	d3608c21 	ubfx	x1, x1, #32, #4
    80005eb0:	f100043f 	cmp	x1, #0x1
    80005eb4:	54000141 	b.ne	80005edc <spe_enable+0x34>  // b.any
    80005eb8:	340000c0 	cbz	w0, 80005ed0 <spe_enable+0x28>
    80005ebc:	d53c1120 	mrs	x0, mdcr_el2
    80005ec0:	92407c00 	and	x0, x0, #0xffffffff
    80005ec4:	9271f800 	and	x0, x0, #0xffffffffffffbfff
    80005ec8:	b2740400 	orr	x0, x0, #0x3000
    80005ecc:	d51c1120 	msr	mdcr_el2, x0
    80005ed0:	d53e1320 	mrs	x0, mdcr_el3
    80005ed4:	b2740400 	orr	x0, x0, #0x3000
    80005ed8:	d51e1320 	msr	mdcr_el3, x0
    80005edc:	d65f03c0 	ret

0000000080005ee0 <disable_sve_hook>:
    80005ee0:	d5380401 	mrs	x1, id_aa64pfr0_el1
    80005ee4:	d3608c21 	ubfx	x1, x1, #32, #4
    80005ee8:	92800000 	mov	x0, #0xffffffffffffffff    	// #-1
    80005eec:	f100043f 	cmp	x1, #0x1
    80005ef0:	54000040 	b.eq	80005ef8 <disable_sve_hook+0x18>  // b.none
    80005ef4:	d65f03c0 	ret
    80005ef8:	d53e1140 	mrs	x0, cptr_el3
    80005efc:	1280a001 	mov	w1, #0xfffffaff            	// #-1281
    80005f00:	8a010000 	and	x0, x0, x1
    80005f04:	b2760000 	orr	x0, x0, #0x400
    80005f08:	d51e1140 	msr	cptr_el3, x0
    80005f0c:	d2800000 	mov	x0, #0x0                   	// #0
    80005f10:	d65f03c0 	ret
    80005f14:	00000000 	.inst	0x00000000 ; undefined

0000000080005f18 <enable_sve_hook>:
    80005f18:	d5380401 	mrs	x1, id_aa64pfr0_el1
    80005f1c:	d3608c21 	ubfx	x1, x1, #32, #4
    80005f20:	92800000 	mov	x0, #0xffffffffffffffff    	// #-1
    80005f24:	f100043f 	cmp	x1, #0x1
    80005f28:	54000040 	b.eq	80005f30 <enable_sve_hook+0x18>  // b.none
    80005f2c:	d65f03c0 	ret
    80005f30:	d53e1140 	mrs	x0, cptr_el3
    80005f34:	1280a001 	mov	w1, #0xfffffaff            	// #-1281
    80005f38:	8a010000 	and	x0, x0, x1
    80005f3c:	b2780000 	orr	x0, x0, #0x100
    80005f40:	d51e1140 	msr	cptr_el3, x0
    80005f44:	d2800000 	mov	x0, #0x0                   	// #0
    80005f48:	d65f03c0 	ret
    80005f4c:	00000000 	.inst	0x00000000 ; undefined

0000000080005f50 <sve_enable>:
    80005f50:	d5380401 	mrs	x1, id_aa64pfr0_el1
    80005f54:	d3608c21 	ubfx	x1, x1, #32, #4
    80005f58:	f100043f 	cmp	x1, #0x1
    80005f5c:	540001a1 	b.ne	80005f90 <sve_enable+0x40>  // b.any
    80005f60:	d53e1141 	mrs	x1, cptr_el3
    80005f64:	b2780021 	orr	x1, x1, #0x100
    80005f68:	d51e1141 	msr	cptr_el3, x1
    80005f6c:	d5033fdf 	isb
    80005f70:	d28001e1 	mov	x1, #0xf                   	// #15
    80005f74:	d51e1201 	msr	zcr_el3, x1
    80005f78:	340000c0 	cbz	w0, 80005f90 <sve_enable+0x40>
    80005f7c:	d53c1140 	mrs	x0, cptr_el2
    80005f80:	92407c00 	and	x0, x0, #0xffffffff
    80005f84:	9277f800 	and	x0, x0, #0xfffffffffffffeff
    80005f88:	d51c1140 	msr	cptr_el2, x0
    80005f8c:	d51c1201 	msr	zcr_el2, x1
    80005f90:	d65f03c0 	ret
    80005f94:	00000000 	.inst	0x00000000 ; undefined

0000000080005f98 <print_entry_point_info>:
    80005f98:	d65f03c0 	ret
    80005f9c:	00000000 	.inst	0x00000000 ; undefined

0000000080005fa0 <tf_log>:
    80005fa0:	a9b67bfd 	stp	x29, x30, [sp, #-160]!
    80005fa4:	90000028 	adrp	x8, 80009000 <__RO_END_UNALIGNED__>
    80005fa8:	910003fd 	mov	x29, sp
    80005fac:	a90153f3 	stp	x19, x20, [sp, #16]
    80005fb0:	aa0003f4 	mov	x20, x0
    80005fb4:	a9068be1 	stp	x1, x2, [sp, #104]
    80005fb8:	b9402d01 	ldr	w1, [x8, #44]
    80005fbc:	39400000 	ldrb	w0, [x0]
    80005fc0:	a90793e3 	stp	x3, x4, [sp, #120]
    80005fc4:	6b00003f 	cmp	w1, w0
    80005fc8:	a9089be5 	stp	x5, x6, [sp, #136]
    80005fcc:	f9004fe7 	str	x7, [sp, #152]
    80005fd0:	54000082 	b.cs	80005fe0 <tf_log+0x40>  // b.hs, b.nlast
    80005fd4:	a94153f3 	ldp	x19, x20, [sp, #16]
    80005fd8:	a8ca7bfd 	ldp	x29, x30, [sp], #160
    80005fdc:	d65f03c0 	ret
    80005fe0:	94000018 	bl	80006040 <plat_log_get_prefix>
    80005fe4:	aa0003f3 	mov	x19, x0
    80005fe8:	39400000 	ldrb	w0, [x0]
    80005fec:	34000080 	cbz	w0, 80005ffc <tf_log+0x5c>
    80005ff0:	940004b4 	bl	800072c0 <putchar>
    80005ff4:	38401e60 	ldrb	w0, [x19, #1]!
    80005ff8:	35ffffc0 	cbnz	w0, 80005ff0 <tf_log+0x50>
    80005ffc:	910283e0 	add	x0, sp, #0xa0
    80006000:	910283e1 	add	x1, sp, #0xa0
    80006004:	a90407e0 	stp	x0, x1, [sp, #64]
    80006008:	910183e3 	add	x3, sp, #0x60
    8000600c:	128006e2 	mov	w2, #0xffffffc8            	// #-56
    80006010:	f9002be3 	str	x3, [sp, #80]
    80006014:	910083e1 	add	x1, sp, #0x20
    80006018:	290b7fe2 	stp	w2, wzr, [sp, #88]
    8000601c:	91000680 	add	x0, x20, #0x1
    80006020:	a9440fe2 	ldp	x2, x3, [sp, #64]
    80006024:	a9020fe2 	stp	x2, x3, [sp, #32]
    80006028:	a9450fe2 	ldp	x2, x3, [sp, #80]
    8000602c:	a9030fe2 	stp	x2, x3, [sp, #48]
    80006030:	94000366 	bl	80006dc8 <vprintf>
    80006034:	a94153f3 	ldp	x19, x20, [sp, #16]
    80006038:	a8ca7bfd 	ldp	x29, x30, [sp], #160
    8000603c:	d65f03c0 	ret

0000000080006040 <plat_log_get_prefix>:
    80006040:	52800641 	mov	w1, #0x32                  	// #50
    80006044:	6b01001f 	cmp	w0, w1
    80006048:	1a819000 	csel	w0, w0, w1, ls  // ls = plast
    8000604c:	52800143 	mov	w3, #0xa                   	// #10
    80006050:	6b03001f 	cmp	w0, w3
    80006054:	529999a2 	mov	w2, #0xcccd                	// #52429
    80006058:	1a832000 	csel	w0, w0, w3, cs  // cs = hs, nlast
    8000605c:	72b99982 	movk	w2, #0xcccc, lsl #16
    80006060:	b0000001 	adrp	x1, 80007000 <vprintf+0x238>
    80006064:	9123a021 	add	x1, x1, #0x8e8
    80006068:	9ba27c00 	umull	x0, w0, w2
    8000606c:	d363fc00 	lsr	x0, x0, #35
    80006070:	51000400 	sub	w0, w0, #0x1
    80006074:	f8607820 	ldr	x0, [x1, x0, lsl #3]
    80006078:	d65f03c0 	ret
    8000607c:	00000000 	.inst	0x00000000 ; undefined

0000000080006080 <plat_ea_handler>:
    80006080:	a9be7bfd 	stp	x29, x30, [sp, #-32]!
    80006084:	910003fd 	mov	x29, sp
    80006088:	a90153f3 	stp	x19, x20, [sp, #16]
    8000608c:	2a0003f3 	mov	w19, w0
    80006090:	aa0103f4 	mov	x20, x1
    80006094:	d53800a1 	mrs	x1, mpidr_el1
    80006098:	b0000000 	adrp	x0, 80007000 <vprintf+0x238>
    8000609c:	91244000 	add	x0, x0, #0x910
    800060a0:	97ffffc0 	bl	80005fa0 <tf_log>
    800060a4:	aa1403e2 	mov	x2, x20
    800060a8:	2a1303e1 	mov	w1, w19
    800060ac:	b0000000 	adrp	x0, 80007000 <vprintf+0x238>
    800060b0:	91252000 	add	x0, x0, #0x948
    800060b4:	97ffffbb 	bl	80005fa0 <tf_log>
    800060b8:	940000ca 	bl	800063e0 <console_flush>
    800060bc:	9400022f 	bl	80006978 <do_panic>

00000000800060c0 <plat_is_my_cpu_primary>:
    800060c0:	d53800a0 	mrs	x0, mpidr_el1
    800060c4:	92401c00 	and	x0, x0, #0xff
    800060c8:	f100001f 	cmp	x0, #0x0
    800060cc:	9a9f17e0 	cset	x0, eq  // eq = none
    800060d0:	d65f03c0 	ret

00000000800060d4 <plat_my_core_pos>:
    800060d4:	d53800a0 	mrs	x0, mpidr_el1
    800060d8:	92401c01 	and	x1, x0, #0xff
    800060dc:	92781c00 	and	x0, x0, #0xff00
    800060e0:	8b401820 	add	x0, x1, x0, lsr #6
    800060e4:	d65f03c0 	ret

00000000800060e8 <plat_reset_handler>:
    800060e8:	d2800e60 	mov	x0, #0x73                  	// #115
    800060ec:	d51e1020 	msr	actlr_el3, x0
    800060f0:	d51c1020 	msr	actlr_el2, x0
    800060f4:	d5033fdf 	isb
    800060f8:	d5380000 	mrs	x0, midr_el1
    800060fc:	d3443c00 	ubfx	x0, x0, #4, #12
    80006100:	7134201f 	cmp	w0, #0xd08
    80006104:	54000040 	b.eq	8000610c <A72>  // b.none
    80006108:	d65f03c0 	ret

000000008000610c <A72>:
    8000610c:	d2800040 	mov	x0, #0x2                   	// #2
    80006110:	b26b0000 	orr	x0, x0, #0x200000
    80006114:	d519b040 	msr	s3_1_c11_c0_2, x0
    80006118:	d5033fdf 	isb
    8000611c:	d65f03c0 	ret

0000000080006120 <plat_get_my_entrypoint>:
    80006120:	d2aba360 	mov	x0, #0x5d1b0000            	// #1562050560
    80006124:	91008000 	add	x0, x0, #0x20
    80006128:	b9400001 	ldr	w1, [x0]
    8000612c:	12020021 	and	w1, w1, #0x40000000
    80006130:	34000081 	cbz	w1, 80006140 <warm_boot>
    80006134:	b9000001 	str	w1, [x0]
    80006138:	d2800000 	mov	x0, #0x0                   	// #0
    8000613c:	d65f03c0 	ret

0000000080006140 <warm_boot>:
    80006140:	f0000001 	adrp	x1, 80009000 <__RO_END_UNALIGNED__>
    80006144:	f9401820 	ldr	x0, [x1, #48]
    80006148:	d65f03c0 	ret

000000008000614c <imx_mailbox_init>:
    8000614c:	f0000001 	adrp	x1, 80009000 <__RO_END_UNALIGNED__>
    80006150:	f9001820 	str	x0, [x1, #48]
    80006154:	d65f03c0 	ret

0000000080006158 <plat_secondary_cold_boot_setup>:
    80006158:	14000000 	b	80006158 <plat_secondary_cold_boot_setup>

000000008000615c <plat_crash_console_init>:
    8000615c:	d65f03c0 	ret

0000000080006160 <plat_crash_console_putc>:
    80006160:	d65f03c0 	ret

0000000080006164 <platform_mem_init>:
    80006164:	d65f03c0 	ret

0000000080006168 <cortex_a53_disable_dcache>:
    80006168:	d53e1001 	mrs	x1, sctlr_el3
    8000616c:	927df821 	and	x1, x1, #0xfffffffffffffffb
    80006170:	d51e1001 	msr	sctlr_el3, x1
    80006174:	d5033fdf 	isb
    80006178:	d65f03c0 	ret

000000008000617c <cortex_a53_disable_smp>:
    8000617c:	d539f220 	mrs	x0, s3_1_c15_c2_1
    80006180:	9279f800 	and	x0, x0, #0xffffffffffffffbf
    80006184:	d519f220 	msr	s3_1_c15_c2_1, x0
    80006188:	d5033fdf 	isb
    8000618c:	d5033f9f 	dsb	sy
    80006190:	d65f03c0 	ret

0000000080006194 <errata_a53_855873_wa>:
    80006194:	aa1e03f1 	mov	x17, x30
    80006198:	94000006 	bl	800061b0 <check_errata_855873>
    8000619c:	b4000080 	cbz	x0, 800061ac <errata_a53_855873_wa+0x18>
    800061a0:	d539f201 	mrs	x1, s3_1_c15_c2_0
    800061a4:	b2540021 	orr	x1, x1, #0x100000000000
    800061a8:	d519f201 	msr	s3_1_c15_c2_0, x1
    800061ac:	d65f0220 	ret	x17

00000000800061b0 <check_errata_855873>:
    800061b0:	d2800061 	mov	x1, #0x3                   	// #3
    800061b4:	1400014c 	b	800066e4 <cpu_rev_var_hs>

00000000800061b8 <cortex_a53_reset_func>:
    800061b8:	aa1e03f3 	mov	x19, x30
    800061bc:	94000141 	bl	800066c0 <cpu_get_rev_var>
    800061c0:	aa0003f2 	mov	x18, x0
    800061c4:	aa1203e0 	mov	x0, x18
    800061c8:	97fffff3 	bl	80006194 <errata_a53_855873_wa>
    800061cc:	d539f220 	mrs	x0, s3_1_c15_c2_1
    800061d0:	b27a0000 	orr	x0, x0, #0x40
    800061d4:	d519f220 	msr	s3_1_c15_c2_1, x0
    800061d8:	d5033fdf 	isb
    800061dc:	d65f0260 	ret	x19

00000000800061e0 <cortex_a53_core_pwr_dwn>:
    800061e0:	aa1e03f2 	mov	x18, x30
    800061e4:	97ffffe1 	bl	80006168 <cortex_a53_disable_dcache>
    800061e8:	d2800020 	mov	x0, #0x1                   	// #1
    800061ec:	9400024f 	bl	80006b28 <dcsw_op_level1>
    800061f0:	aa1203fe 	mov	x30, x18
    800061f4:	17ffffe2 	b	8000617c <cortex_a53_disable_smp>

00000000800061f8 <cortex_a53_cluster_pwr_dwn>:
    800061f8:	aa1e03f2 	mov	x18, x30
    800061fc:	97ffffdb 	bl	80006168 <cortex_a53_disable_dcache>
    80006200:	d2800020 	mov	x0, #0x1                   	// #1
    80006204:	94000249 	bl	80006b28 <dcsw_op_level1>
    80006208:	9400028d 	bl	80006c3c <plat_disable_acp>
    8000620c:	d2800020 	mov	x0, #0x1                   	// #1
    80006210:	9400024a 	bl	80006b38 <dcsw_op_level2>
    80006214:	aa1203fe 	mov	x30, x18
    80006218:	17ffffd9 	b	8000617c <cortex_a53_disable_smp>

000000008000621c <cortex_a72_disable_dcache>:
    8000621c:	d53e1001 	mrs	x1, sctlr_el3
    80006220:	927df821 	and	x1, x1, #0xfffffffffffffffb
    80006224:	d51e1001 	msr	sctlr_el3, x1
    80006228:	d5033fdf 	isb
    8000622c:	d65f03c0 	ret

0000000080006230 <cortex_a72_disable_l2_prefetch>:
    80006230:	d539f220 	mrs	x0, s3_1_c15_c2_1
    80006234:	b25a0000 	orr	x0, x0, #0x4000000000
    80006238:	d2c00301 	mov	x1, #0x1800000000          	// #103079215104
    8000623c:	b2600421 	orr	x1, x1, #0x300000000
    80006240:	8a210000 	bic	x0, x0, x1
    80006244:	d519f220 	msr	s3_1_c15_c2_1, x0
    80006248:	d5033fdf 	isb
    8000624c:	d65f03c0 	ret

0000000080006250 <cortex_a72_disable_hw_prefetcher>:
    80006250:	d539f200 	mrs	x0, s3_1_c15_c2_0
    80006254:	b2480000 	orr	x0, x0, #0x100000000000000
    80006258:	d519f200 	msr	s3_1_c15_c2_0, x0
    8000625c:	d5033fdf 	isb
    80006260:	d5033b9f 	dsb	ish
    80006264:	d65f03c0 	ret

0000000080006268 <cortex_a72_disable_smp>:
    80006268:	d539f220 	mrs	x0, s3_1_c15_c2_1
    8000626c:	9279f800 	and	x0, x0, #0xffffffffffffffbf
    80006270:	d519f220 	msr	s3_1_c15_c2_1, x0
    80006274:	d65f03c0 	ret

0000000080006278 <cortex_a72_disable_ext_debug>:
    80006278:	d2800020 	mov	x0, #0x1                   	// #1
    8000627c:	d5101380 	msr	osdlr_el1, x0
    80006280:	d5033fdf 	isb
    80006284:	d5033f9f 	dsb	sy
    80006288:	d65f03c0 	ret

000000008000628c <errata_a72_859971_wa>:
    8000628c:	aa1e03f1 	mov	x17, x30
    80006290:	94000006 	bl	800062a8 <check_errata_859971>
    80006294:	b4000080 	cbz	x0, 800062a4 <errata_a72_859971_wa+0x18>
    80006298:	d539f201 	mrs	x1, s3_1_c15_c2_0
    8000629c:	b2600021 	orr	x1, x1, #0x100000000
    800062a0:	d519f201 	msr	s3_1_c15_c2_0, x1
    800062a4:	d65f0220 	ret	x17

00000000800062a8 <check_errata_859971>:
    800062a8:	d2800061 	mov	x1, #0x3                   	// #3
    800062ac:	14000109 	b	800066d0 <cpu_rev_var_ls>

00000000800062b0 <check_errata_cve_2017_5715>:
    800062b0:	d5380400 	mrs	x0, id_aa64pfr0_el1
    800062b4:	d378ec00 	ubfx	x0, x0, #56, #4
    800062b8:	f100041f 	cmp	x0, #0x1
    800062bc:	54000060 	b.eq	800062c8 <check_errata_cve_2017_5715+0x18>  // b.none
    800062c0:	d2800020 	mov	x0, #0x1                   	// #1
    800062c4:	d65f03c0 	ret
    800062c8:	d2800000 	mov	x0, #0x0                   	// #0
    800062cc:	d65f03c0 	ret

00000000800062d0 <cortex_a72_reset_func>:
    800062d0:	aa1e03f3 	mov	x19, x30
    800062d4:	940000fb 	bl	800066c0 <cpu_get_rev_var>
    800062d8:	aa0003f2 	mov	x18, x0
    800062dc:	aa1203e0 	mov	x0, x18
    800062e0:	97ffffeb 	bl	8000628c <errata_a72_859971_wa>
    800062e4:	d5380400 	mrs	x0, id_aa64pfr0_el1
    800062e8:	d378ec00 	ubfx	x0, x0, #56, #4
    800062ec:	f100041f 	cmp	x0, #0x1
    800062f0:	54000060 	b.eq	800062fc <cortex_a72_reset_func+0x2c>  // b.none
    800062f4:	10012860 	adr	x0, 80008800 <mmu_sync_exception_sp_el0>
    800062f8:	d51ec000 	msr	vbar_el3, x0
    800062fc:	d539f200 	mrs	x0, s3_1_c15_c2_0
    80006300:	b2490000 	orr	x0, x0, #0x80000000000000
    80006304:	d519f200 	msr	s3_1_c15_c2_0, x0
    80006308:	d5033fdf 	isb
    8000630c:	d5033f9f 	dsb	sy
    80006310:	d539f220 	mrs	x0, s3_1_c15_c2_1
    80006314:	b27a0000 	orr	x0, x0, #0x40
    80006318:	d519f220 	msr	s3_1_c15_c2_1, x0
    8000631c:	d5033fdf 	isb
    80006320:	d65f0260 	ret	x19

0000000080006324 <cortex_a72_core_pwr_dwn>:
    80006324:	aa1e03f2 	mov	x18, x30
    80006328:	97ffffbd 	bl	8000621c <cortex_a72_disable_dcache>
    8000632c:	97ffffc1 	bl	80006230 <cortex_a72_disable_l2_prefetch>
    80006330:	97ffffc8 	bl	80006250 <cortex_a72_disable_hw_prefetcher>
    80006334:	d2800020 	mov	x0, #0x1                   	// #1
    80006338:	940001fc 	bl	80006b28 <dcsw_op_level1>
    8000633c:	97ffffcb 	bl	80006268 <cortex_a72_disable_smp>
    80006340:	aa1203fe 	mov	x30, x18
    80006344:	17ffffcd 	b	80006278 <cortex_a72_disable_ext_debug>

0000000080006348 <cortex_a72_cluster_pwr_dwn>:
    80006348:	aa1e03f2 	mov	x18, x30
    8000634c:	97ffffb4 	bl	8000621c <cortex_a72_disable_dcache>
    80006350:	97ffffb8 	bl	80006230 <cortex_a72_disable_l2_prefetch>
    80006354:	97ffffbf 	bl	80006250 <cortex_a72_disable_hw_prefetcher>
    80006358:	d2800020 	mov	x0, #0x1                   	// #1
    8000635c:	940001f3 	bl	80006b28 <dcsw_op_level1>
    80006360:	94000237 	bl	80006c3c <plat_disable_acp>
    80006364:	d2800020 	mov	x0, #0x1                   	// #1
    80006368:	940001f4 	bl	80006b38 <dcsw_op_level2>
    8000636c:	97ffffbf 	bl	80006268 <cortex_a72_disable_smp>
    80006370:	aa1203fe 	mov	x30, x18
    80006374:	17ffffc1 	b	80006278 <cortex_a72_disable_ext_debug>

0000000080006378 <console_putc>:
    80006378:	a9bf7bf5 	stp	x21, x30, [sp, #-16]!
    8000637c:	a9bf53f3 	stp	x19, x20, [sp, #-16]!
    80006380:	12800ff4 	mov	w20, #0xffffff80            	// #-128
    80006384:	2a0003f3 	mov	w19, w0
    80006388:	f0000015 	adrp	x21, 80009000 <__RO_END_UNALIGNED__>
    8000638c:	f9401eb5 	ldr	x21, [x21, #56]

0000000080006390 <putc_loop>:
    80006390:	b4000215 	cbz	x21, 800063d0 <putc_done>
    80006394:	f0000001 	adrp	x1, 80009000 <__RO_END_UNALIGNED__>
    80006398:	39410021 	ldrb	w1, [x1, #64]
    8000639c:	b9400aa2 	ldr	w2, [x21, #8]
    800063a0:	6a02003f 	tst	w1, w2
    800063a4:	54000120 	b.eq	800063c8 <putc_continue>  // b.none
    800063a8:	f9400aa2 	ldr	x2, [x21, #16]
    800063ac:	b40000e2 	cbz	x2, 800063c8 <putc_continue>
    800063b0:	2a1303e0 	mov	w0, w19
    800063b4:	aa1503e1 	mov	x1, x21
    800063b8:	d63f0040 	blr	x2
    800063bc:	3102029f 	cmn	w20, #0x80
    800063c0:	7a401808 	ccmp	w0, #0x0, #0x8, ne  // ne = any
    800063c4:	1a94b014 	csel	w20, w0, w20, lt  // lt = tstop

00000000800063c8 <putc_continue>:
    800063c8:	f94002b5 	ldr	x21, [x21]
    800063cc:	17fffff1 	b	80006390 <putc_loop>

00000000800063d0 <putc_done>:
    800063d0:	2a1403e0 	mov	w0, w20
    800063d4:	a8c153f3 	ldp	x19, x20, [sp], #16
    800063d8:	a8c17bf5 	ldp	x21, x30, [sp], #16
    800063dc:	d65f03c0 	ret

00000000800063e0 <console_flush>:
    800063e0:	a9bf7ffe 	stp	x30, xzr, [sp, #-16]!
    800063e4:	a9bf57f4 	stp	x20, x21, [sp, #-16]!
    800063e8:	12800ff4 	mov	w20, #0xffffff80            	// #-128
    800063ec:	f0000015 	adrp	x21, 80009000 <__RO_END_UNALIGNED__>
    800063f0:	f9401eb5 	ldr	x21, [x21, #56]

00000000800063f4 <flush_loop>:
    800063f4:	b40001f5 	cbz	x21, 80006430 <flush_done>
    800063f8:	f0000001 	adrp	x1, 80009000 <__RO_END_UNALIGNED__>
    800063fc:	39410021 	ldrb	w1, [x1, #64]
    80006400:	b9400aa2 	ldr	w2, [x21, #8]
    80006404:	6a02003f 	tst	w1, w2
    80006408:	54000100 	b.eq	80006428 <flush_continue>  // b.none
    8000640c:	f94012a1 	ldr	x1, [x21, #32]
    80006410:	b40000c1 	cbz	x1, 80006428 <flush_continue>
    80006414:	aa1503e0 	mov	x0, x21
    80006418:	d63f0020 	blr	x1
    8000641c:	3102029f 	cmn	w20, #0x80
    80006420:	7a401808 	ccmp	w0, #0x0, #0x8, ne  // ne = any
    80006424:	1a94b014 	csel	w20, w0, w20, lt  // lt = tstop

0000000080006428 <flush_continue>:
    80006428:	f94002b5 	ldr	x21, [x21]
    8000642c:	17fffff2 	b	800063f4 <flush_loop>

0000000080006430 <flush_done>:
    80006430:	2a1403e0 	mov	w0, w20
    80006434:	a8c157f4 	ldp	x20, x21, [sp], #16
    80006438:	a8c17ffe 	ldp	x30, xzr, [sp], #16
    8000643c:	d65f03c0 	ret

0000000080006440 <report_unhandled_exception>:
    80006440:	94000200 	bl	80006c40 <plat_panic_handler>

0000000080006444 <enter_lower_el_sync_ea>:
    80006444:	f9007bfe 	str	x30, [sp, #240]
    80006448:	d53e521e 	mrs	x30, esr_el3
    8000644c:	d35a7fde 	ubfx	x30, x30, #26, #6
    80006450:	f10083df 	cmp	x30, #0x20
    80006454:	54000060 	b.eq	80006460 <enter_lower_el_sync_ea+0x1c>  // b.none
    80006458:	f10093df 	cmp	x30, #0x24
    8000645c:	54000101 	b.ne	8000647c <enter_lower_el_sync_ea+0x38>  // b.any
    80006460:	d53e521e 	mrs	x30, esr_el3
    80006464:	364800de 	tbz	w30, #9, 8000647c <enter_lower_el_sync_ea+0x38>
    80006468:	94000102 	bl	80006870 <save_gp_registers>
    8000646c:	d2800020 	mov	x0, #0x1                   	// #1
    80006470:	d53e5201 	mrs	x1, esr_el3
    80006474:	100024de 	adr	x30, 8000690c <el3_exit>
    80006478:	14000009 	b	8000649c <delegate_sync_ea>
    8000647c:	f9407bfe 	ldr	x30, [sp, #240]
    80006480:	97fffff0 	bl	80006440 <report_unhandled_exception>

0000000080006484 <enter_lower_el_async_ea>:
    80006484:	f9007bfe 	str	x30, [sp, #240]
    80006488:	940000fa 	bl	80006870 <save_gp_registers>
    8000648c:	d2800000 	mov	x0, #0x0                   	// #0
    80006490:	d53e5201 	mrs	x1, esr_el3
    80006494:	100023de 	adr	x30, 8000690c <el3_exit>
    80006498:	14000002 	b	800064a0 <delegate_async_ea>

000000008000649c <delegate_sync_ea>:
    8000649c:	14000002 	b	800064a4 <ea_proceed>

00000000800064a0 <delegate_async_ea>:
    800064a0:	14000001 	b	800064a4 <ea_proceed>

00000000800064a4 <ea_proceed>:
    800064a4:	f94087e5 	ldr	x5, [sp, #264]
    800064a8:	b4000045 	cbz	x5, 800064b0 <ea_proceed+0xc>
    800064ac:	940001e8 	bl	80006c4c <plat_handle_double_fault>
    800064b0:	d53e4002 	mrs	x2, spsr_el3
    800064b4:	d53e4023 	mrs	x3, elr_el3
    800064b8:	a9118fe2 	stp	x2, x3, [sp, #280]
    800064bc:	d53e1104 	mrs	x4, scr_el3
    800064c0:	d53e5205 	mrs	x5, esr_el3
    800064c4:	a91017e4 	stp	x4, x5, [sp, #256]
    800064c8:	aa1f03e2 	mov	x2, xzr
    800064cc:	910003e3 	mov	x3, sp
    800064d0:	d3400084 	ubfx	x4, x4, #0, #1
    800064d4:	f9408be5 	ldr	x5, [sp, #272]
    800064d8:	d50040bf 	msr	spsel, #0x0
    800064dc:	910000bf 	mov	sp, x5
    800064e0:	aa1e03fd 	mov	x29, x30
    800064e4:	97fffee7 	bl	80006080 <plat_ea_handler>
    800064e8:	d50041bf 	msr	spsel, #0x1
    800064ec:	a9518be1 	ldp	x1, x2, [sp, #280]
    800064f0:	d51e4001 	msr	spsr_el3, x1
    800064f4:	d51e4022 	msr	elr_el3, x2
    800064f8:	a95013e3 	ldp	x3, x4, [sp, #256]
    800064fc:	d51e1103 	msr	scr_el3, x3
    80006500:	d51e5204 	msr	esr_el3, x4
    80006504:	f90087ff 	str	xzr, [sp, #264]
    80006508:	d65f03a0 	ret	x29

000000008000650c <smc_handler>:
    8000650c:	37f00520 	tbnz	w0, #30, 800065b0 <smc_prohibited>

0000000080006510 <smc_handler64>:
    80006510:	a90217e4 	stp	x4, x5, [sp, #32]
    80006514:	a9031fe6 	stp	x6, x7, [sp, #48]
    80006518:	a90427e8 	stp	x8, x9, [sp, #64]
    8000651c:	a9052fea 	stp	x10, x11, [sp, #80]
    80006520:	a90637ec 	stp	x12, x13, [sp, #96]
    80006524:	a9073fee 	stp	x14, x15, [sp, #112]
    80006528:	a90847f0 	stp	x16, x17, [sp, #128]
    8000652c:	a9094ff2 	stp	x18, x19, [sp, #144]
    80006530:	a90a57f4 	stp	x20, x21, [sp, #160]
    80006534:	a90b5ff6 	stp	x22, x23, [sp, #176]
    80006538:	a90c67f8 	stp	x24, x25, [sp, #192]
    8000653c:	a90d6ffa 	stp	x26, x27, [sp, #208]
    80006540:	a90e77fc 	stp	x28, x29, [sp, #224]
    80006544:	d5384112 	mrs	x18, sp_el0
    80006548:	f9007ff2 	str	x18, [sp, #248]
    8000654c:	aa1f03e5 	mov	x5, xzr
    80006550:	910003e6 	mov	x6, sp
    80006554:	d3587410 	ubfx	x16, x0, #24, #6
    80006558:	d35f7c0f 	ubfx	x15, x0, #31, #1
    8000655c:	aa0f1a10 	orr	x16, x16, x15, lsl #6
    80006560:	1003e70e 	adr	x14, 8000e240 <rt_svc_descs_indices>
    80006564:	387069cf 	ldrb	w15, [x14, x16]
    80006568:	373801ef 	tbnz	w15, #7, 800065a4 <smc_unknown>
    8000656c:	1000a1ab 	adr	x11, 800079a0 <__RT_SVC_DESCS_START__+0x18>
    80006570:	531b69ea 	lsl	w10, w15, #5
    80006574:	f86a496f 	ldr	x15, [x11, w10, uxtw]
    80006578:	f94088cc 	ldr	x12, [x6, #272]
    8000657c:	d50040bf 	msr	spsel, #0x0
    80006580:	d53e4010 	mrs	x16, spsr_el3
    80006584:	d53e4031 	mrs	x17, elr_el3
    80006588:	d53e1112 	mrs	x18, scr_el3
    8000658c:	a911c4d0 	stp	x16, x17, [x6, #280]
    80006590:	f90080d2 	str	x18, [x6, #256]
    80006594:	b3400247 	bfxil	x7, x18, #0, #1
    80006598:	9100019f 	mov	sp, x12
    8000659c:	d63f01e0 	blr	x15
    800065a0:	140000db 	b	8000690c <el3_exit>

00000000800065a4 <smc_unknown>:
    800065a4:	92800000 	mov	x0, #0xffffffffffffffff    	// #-1
    800065a8:	f90003e0 	str	x0, [sp]
    800065ac:	140000d5 	b	80006900 <restore_gp_registers_eret>

00000000800065b0 <smc_prohibited>:
    800065b0:	f9407bfe 	ldr	x30, [sp, #240]
    800065b4:	92800000 	mov	x0, #0xffffffffffffffff    	// #-1
    800065b8:	d69f03e0 	eret

00000000800065bc <rt_svc_fw_critical_error>:
    800065bc:	d50041bf 	msr	spsel, #0x1
    800065c0:	97ffffa0 	bl	80006440 <report_unhandled_exception>
    800065c4:	00000000 	.inst	0x00000000 ; undefined

00000000800065c8 <plat_get_my_stack>:
    800065c8:	aa1e03ea 	mov	x10, x30
    800065cc:	97fffec2 	bl	800060d4 <plat_my_core_pos>
    800065d0:	58000082 	ldr	x2, 800065e0 <plat_get_my_stack+0x18>
    800065d4:	d2808001 	mov	x1, #0x400                 	// #1024
    800065d8:	9b010800 	madd	x0, x0, x1, x2
    800065dc:	d65f0140 	ret	x10
    800065e0:	80009480 	.word	0x80009480
    800065e4:	00000000 	.word	0x00000000

00000000800065e8 <plat_set_my_stack>:
    800065e8:	aa1e03e9 	mov	x9, x30
    800065ec:	97fffff7 	bl	800065c8 <plat_get_my_stack>
    800065f0:	9100001f 	mov	sp, x0
    800065f4:	d65f0120 	ret	x9

00000000800065f8 <init_cpu_data_ptr>:
    800065f8:	aa1e03ea 	mov	x10, x30
    800065fc:	97fffeb6 	bl	800060d4 <plat_my_core_pos>
    80006600:	94000003 	bl	8000660c <_cpu_data_by_index>
    80006604:	d51ed040 	msr	tpidr_el3, x0
    80006608:	d65f0140 	ret	x10

000000008000660c <_cpu_data_by_index>:
    8000660c:	d2800801 	mov	x1, #0x40                  	// #64
    80006610:	9b017c00 	mul	x0, x0, x1
    80006614:	1003e561 	adr	x1, 8000e2c0 <percpu_data>
    80006618:	8b010000 	add	x0, x0, x1
    8000661c:	d65f03c0 	ret

0000000080006620 <reset_handler>:
    80006620:	aa1e03f3 	mov	x19, x30
    80006624:	97fffeb1 	bl	800060e8 <plat_reset_handler>
    80006628:	94000017 	bl	80006684 <get_cpu_ops_ptr>
    8000662c:	f9400402 	ldr	x2, [x0, #8]
    80006630:	aa1303fe 	mov	x30, x19
    80006634:	b4000042 	cbz	x2, 8000663c <reset_handler+0x1c>
    80006638:	d61f0040 	br	x2
    8000663c:	d65f03c0 	ret

0000000080006640 <prepare_cpu_pwr_dwn>:
    80006640:	d2800022 	mov	x2, #0x1                   	// #1
    80006644:	eb02001f 	cmp	x0, x2
    80006648:	9a808042 	csel	x2, x2, x0, hi  // hi = pmore
    8000664c:	d53ed041 	mrs	x1, tpidr_el3
    80006650:	f9400820 	ldr	x0, [x1, #16]
    80006654:	d2800401 	mov	x1, #0x20                  	// #32
    80006658:	8b020c21 	add	x1, x1, x2, lsl #3
    8000665c:	f8616801 	ldr	x1, [x0, x1]
    80006660:	d61f0020 	br	x1

0000000080006664 <init_cpu_ops>:
    80006664:	d53ed046 	mrs	x6, tpidr_el3
    80006668:	f94008c0 	ldr	x0, [x6, #16]
    8000666c:	b50000a0 	cbnz	x0, 80006680 <init_cpu_ops+0x1c>
    80006670:	aa1e03ea 	mov	x10, x30
    80006674:	94000004 	bl	80006684 <get_cpu_ops_ptr>
    80006678:	f8010cc0 	str	x0, [x6, #16]!
    8000667c:	aa0a03fe 	mov	x30, x10
    80006680:	d65f03c0 	ret

0000000080006684 <get_cpu_ops_ptr>:
    80006684:	10009b24 	adr	x4, 800079e8 <__CPU_OPS_START__>
    80006688:	10009e05 	adr	x5, 80007a48 <__cb_func_spe_drain_buffers_hookcm_entering_secure_world>
    8000668c:	d2800000 	mov	x0, #0x0                   	// #0
    80006690:	d5380002 	mrs	x2, midr_el1
    80006694:	d29ffe03 	mov	x3, #0xfff0                	// #65520
    80006698:	f2bfe003 	movk	x3, #0xff00, lsl #16
    8000669c:	0a030042 	and	w2, w2, w3
    800066a0:	eb05009f 	cmp	x4, x5
    800066a4:	540000c0 	b.eq	800066bc <error_exit>  // b.none
    800066a8:	f8430481 	ldr	x1, [x4], #48
    800066ac:	0a030021 	and	w1, w1, w3
    800066b0:	6b02003f 	cmp	w1, w2
    800066b4:	54ffff61 	b.ne	800066a0 <get_cpu_ops_ptr+0x1c>  // b.any
    800066b8:	d100c080 	sub	x0, x4, #0x30

00000000800066bc <error_exit>:
    800066bc:	d65f03c0 	ret

00000000800066c0 <cpu_get_rev_var>:
    800066c0:	d5380001 	mrs	x1, midr_el1
    800066c4:	d3505c20 	ubfx	x0, x1, #16, #8
    800066c8:	b3400c20 	bfxil	x0, x1, #0, #4
    800066cc:	d65f03c0 	ret

00000000800066d0 <cpu_rev_var_ls>:
    800066d0:	d2800022 	mov	x2, #0x1                   	// #1
    800066d4:	d2800003 	mov	x3, #0x0                   	// #0
    800066d8:	eb01001f 	cmp	x0, x1
    800066dc:	9a839040 	csel	x0, x2, x3, ls  // ls = plast
    800066e0:	d65f03c0 	ret

00000000800066e4 <cpu_rev_var_hs>:
    800066e4:	d2800022 	mov	x2, #0x1                   	// #1
    800066e8:	d2800003 	mov	x3, #0x0                   	// #0
    800066ec:	eb01001f 	cmp	x0, x1
    800066f0:	9a832040 	csel	x0, x2, x3, cs  // cs = hs, nlast
    800066f4:	d65f03c0 	ret

00000000800066f8 <check_wa_cve_2017_5715>:
    800066f8:	d53ed040 	mrs	x0, tpidr_el3
    800066fc:	f9400800 	ldr	x0, [x0, #16]
    80006700:	f9400800 	ldr	x0, [x0, #16]
    80006704:	f100001f 	cmp	x0, #0x0
    80006708:	54000040 	b.eq	80006710 <check_wa_cve_2017_5715+0x18>  // b.none
    8000670c:	d61f0000 	br	x0
    80006710:	d2800000 	mov	x0, #0x0                   	// #0
    80006714:	d65f03c0 	ret

0000000080006718 <spin_lock>:
    80006718:	52800022 	mov	w2, #0x1                   	// #1
    8000671c:	d50320bf 	sevl

0000000080006720 <l1>:
    80006720:	d503205f 	wfe

0000000080006724 <l2>:
    80006724:	885ffc01 	ldaxr	w1, [x0]
    80006728:	35ffffc1 	cbnz	w1, 80006720 <l1>
    8000672c:	88017c02 	stxr	w1, w2, [x0]
    80006730:	35ffffa1 	cbnz	w1, 80006724 <l2>
    80006734:	d65f03c0 	ret

0000000080006738 <spin_unlock>:
    80006738:	889ffc1f 	stlr	wzr, [x0]
    8000673c:	d65f03c0 	ret

0000000080006740 <psci_do_pwrdown_cache_maintenance>:
    80006740:	a9bf7bfd 	stp	x29, x30, [sp, #-16]!
    80006744:	a9bf53f3 	stp	x19, x20, [sp, #-16]!
    80006748:	97ffffbe 	bl	80006640 <prepare_cpu_pwr_dwn>
    8000674c:	97ffff9f 	bl	800065c8 <plat_get_my_stack>
    80006750:	aa0003f3 	mov	x19, x0
    80006754:	910003e1 	mov	x1, sp
    80006758:	cb010001 	sub	x1, x0, x1
    8000675c:	910003e0 	mov	x0, sp
    80006760:	94000091 	bl	800069a4 <flush_dcache_range>
    80006764:	d1100260 	sub	x0, x19, #0x400
    80006768:	cb2063e1 	sub	x1, sp, x0
    8000676c:	940000aa 	bl	80006a14 <inv_dcache_range>
    80006770:	a8c153f3 	ldp	x19, x20, [sp], #16
    80006774:	a8c17bfd 	ldp	x29, x30, [sp], #16
    80006778:	d65f03c0 	ret

000000008000677c <psci_do_pwrup_cache_maintenance>:
    8000677c:	a9bf7bfd 	stp	x29, x30, [sp, #-16]!
    80006780:	d5033ebf 	dmb	st
    80006784:	97ffff91 	bl	800065c8 <plat_get_my_stack>
    80006788:	910003e1 	mov	x1, sp
    8000678c:	cb010001 	sub	x1, x0, x1
    80006790:	910003e0 	mov	x0, sp
    80006794:	940000a0 	bl	80006a14 <inv_dcache_range>
    80006798:	d53e1000 	mrs	x0, sctlr_el3
    8000679c:	b27e0000 	orr	x0, x0, #0x4
    800067a0:	d51e1000 	msr	sctlr_el3, x0
    800067a4:	d5033fdf 	isb
    800067a8:	a8c17bfd 	ldp	x29, x30, [sp], #16
    800067ac:	d65f03c0 	ret

00000000800067b0 <psci_power_down_wfi>:
    800067b0:	d5033f9f 	dsb	sy
    800067b4:	d503207f 	wfi
    800067b8:	94000122 	bl	80006c40 <plat_panic_handler>

00000000800067bc <el1_sysregs_context_restore>:
    800067bc:	a9402809 	ldp	x9, x10, [x0]
    800067c0:	d5184009 	msr	spsr_el1, x9
    800067c4:	d518402a 	msr	elr_el1, x10
    800067c8:	a941400f 	ldp	x15, x16, [x0, #16]
    800067cc:	d518100f 	msr	sctlr_el1, x15
    800067d0:	d5181030 	msr	actlr_el1, x16
    800067d4:	a9422411 	ldp	x17, x9, [x0, #32]
    800067d8:	d5181051 	msr	cpacr_el1, x17
    800067dc:	d51a0009 	msr	csselr_el1, x9
    800067e0:	a9432c0a 	ldp	x10, x11, [x0, #48]
    800067e4:	d51c410a 	msr	sp_el1, x10
    800067e8:	d518520b 	msr	esr_el1, x11
    800067ec:	a944340c 	ldp	x12, x13, [x0, #64]
    800067f0:	d518200c 	msr	ttbr0_el1, x12
    800067f4:	d518202d 	msr	ttbr1_el1, x13
    800067f8:	a9453c0e 	ldp	x14, x15, [x0, #80]
    800067fc:	d518a20e 	msr	mair_el1, x14
    80006800:	d518a30f 	msr	amair_el1, x15
    80006804:	a9464410 	ldp	x16, x17, [x0, #96]
    80006808:	d5182050 	msr	tcr_el1, x16
    8000680c:	d518d091 	msr	tpidr_el1, x17
    80006810:	a9472809 	ldp	x9, x10, [x0, #112]
    80006814:	d51bd049 	msr	tpidr_el0, x9
    80006818:	d51bd06a 	msr	tpidrro_el0, x10
    8000681c:	a948380d 	ldp	x13, x14, [x0, #128]
    80006820:	d518740d 	msr	par_el1, x13
    80006824:	d518600e 	msr	far_el1, x14
    80006828:	a949400f 	ldp	x15, x16, [x0, #144]
    8000682c:	d518510f 	msr	afsr0_el1, x15
    80006830:	d5185130 	msr	afsr1_el1, x16
    80006834:	a94a2411 	ldp	x17, x9, [x0, #160]
    80006838:	d518d031 	msr	contextidr_el1, x17
    8000683c:	d518c009 	msr	vbar_el1, x9
    80006840:	f940580a 	ldr	x10, [x0, #176]
    80006844:	d51b9c0a 	msr	pmcr_el0, x10
    80006848:	a94c300b 	ldp	x11, x12, [x0, #192]
    8000684c:	d51c432b 	msr	spsr_abt, x11
    80006850:	d51c434c 	msr	spsr_und, x12
    80006854:	a94d380d 	ldp	x13, x14, [x0, #208]
    80006858:	d51c430d 	msr	spsr_irq, x13
    8000685c:	d51c436e 	msr	spsr_fiq, x14
    80006860:	a94e400f 	ldp	x15, x16, [x0, #224]
    80006864:	d51c300f 	msr	dacr32_el2, x15
    80006868:	d51c5030 	msr	ifsr32_el2, x16
    8000686c:	d65f03c0 	ret

0000000080006870 <save_gp_registers>:
    80006870:	a90007e0 	stp	x0, x1, [sp]
    80006874:	a9010fe2 	stp	x2, x3, [sp, #16]
    80006878:	a90217e4 	stp	x4, x5, [sp, #32]
    8000687c:	a9031fe6 	stp	x6, x7, [sp, #48]
    80006880:	a90427e8 	stp	x8, x9, [sp, #64]
    80006884:	a9052fea 	stp	x10, x11, [sp, #80]
    80006888:	a90637ec 	stp	x12, x13, [sp, #96]
    8000688c:	a9073fee 	stp	x14, x15, [sp, #112]
    80006890:	a90847f0 	stp	x16, x17, [sp, #128]
    80006894:	a9094ff2 	stp	x18, x19, [sp, #144]
    80006898:	a90a57f4 	stp	x20, x21, [sp, #160]
    8000689c:	a90b5ff6 	stp	x22, x23, [sp, #176]
    800068a0:	a90c67f8 	stp	x24, x25, [sp, #192]
    800068a4:	a90d6ffa 	stp	x26, x27, [sp, #208]
    800068a8:	a90e77fc 	stp	x28, x29, [sp, #224]
    800068ac:	d5384112 	mrs	x18, sp_el0
    800068b0:	f9007ff2 	str	x18, [sp, #248]
    800068b4:	d65f03c0 	ret

00000000800068b8 <restore_gp_registers>:
    800068b8:	a94007e0 	ldp	x0, x1, [sp]
    800068bc:	a9410fe2 	ldp	x2, x3, [sp, #16]
    800068c0:	a94217e4 	ldp	x4, x5, [sp, #32]
    800068c4:	a9431fe6 	ldp	x6, x7, [sp, #48]
    800068c8:	a94427e8 	ldp	x8, x9, [sp, #64]
    800068cc:	a9452fea 	ldp	x10, x11, [sp, #80]
    800068d0:	a94637ec 	ldp	x12, x13, [sp, #96]
    800068d4:	a9473fee 	ldp	x14, x15, [sp, #112]
    800068d8:	a94847f0 	ldp	x16, x17, [sp, #128]
    800068dc:	a9494ff2 	ldp	x18, x19, [sp, #144]
    800068e0:	a94a57f4 	ldp	x20, x21, [sp, #160]
    800068e4:	a94b5ff6 	ldp	x22, x23, [sp, #176]
    800068e8:	a94c67f8 	ldp	x24, x25, [sp, #192]
    800068ec:	a94d6ffa 	ldp	x26, x27, [sp, #208]
    800068f0:	f9407ffc 	ldr	x28, [sp, #248]
    800068f4:	d518411c 	msr	sp_el0, x28
    800068f8:	a94e77fc 	ldp	x28, x29, [sp, #224]
    800068fc:	d65f03c0 	ret

0000000080006900 <restore_gp_registers_eret>:
    80006900:	97ffffee 	bl	800068b8 <restore_gp_registers>
    80006904:	f9407bfe 	ldr	x30, [sp, #240]
    80006908:	d69f03e0 	eret

000000008000690c <el3_exit>:
    8000690c:	910003f1 	mov	x17, sp
    80006910:	d50041bf 	msr	spsel, #0x1
    80006914:	f9008bf1 	str	x17, [sp, #272]
    80006918:	f94083f2 	ldr	x18, [sp, #256]
    8000691c:	a951c7f0 	ldp	x16, x17, [sp, #280]
    80006920:	d51e1112 	msr	scr_el3, x18
    80006924:	d51e4010 	msr	spsr_el3, x16
    80006928:	d51e4031 	msr	elr_el3, x17
    8000692c:	17fffff5 	b	80006900 <restore_gp_registers_eret>

0000000080006930 <asm_print_str>:
    80006930:	aa1e03e3 	mov	x3, x30
    80006934:	38401480 	ldrb	w0, [x4], #1
    80006938:	b4000060 	cbz	x0, 80006944 <asm_print_str+0x14>
    8000693c:	97fffe09 	bl	80006160 <plat_crash_console_putc>
    80006940:	17fffffd 	b	80006934 <asm_print_str+0x4>
    80006944:	d65f0060 	ret	x3

0000000080006948 <asm_print_hex>:
    80006948:	aa1e03e3 	mov	x3, x30
    8000694c:	d2800805 	mov	x5, #0x40                  	// #64
    80006950:	d10010a5 	sub	x5, x5, #0x4
    80006954:	9ac52480 	lsr	x0, x4, x5
    80006958:	92400c00 	and	x0, x0, #0xf
    8000695c:	f100281f 	cmp	x0, #0xa
    80006960:	54000043 	b.cc	80006968 <asm_print_hex+0x20>  // b.lo, b.ul, b.last
    80006964:	91009c00 	add	x0, x0, #0x27
    80006968:	9100c000 	add	x0, x0, #0x30
    8000696c:	97fffdfd 	bl	80006160 <plat_crash_console_putc>
    80006970:	b5ffff05 	cbnz	x5, 80006950 <asm_print_hex+0x8>
    80006974:	d65f0060 	ret	x3

0000000080006978 <do_panic>:
    80006978:	aa1e03e6 	mov	x6, x30
    8000697c:	97fffdf8 	bl	8000615c <plat_crash_console_init>
    80006980:	b40000e0 	cbz	x0, 8000699c <_panic_handler>
    80006984:	70007f44 	adr	x4, 8000796f <panic_msg>
    80006988:	97ffffea 	bl	80006930 <asm_print_str>
    8000698c:	aa0603e4 	mov	x4, x6
    80006990:	d1001084 	sub	x4, x4, #0x4
    80006994:	97ffffed 	bl	80006948 <asm_print_hex>
    80006998:	940000a8 	bl	80006c38 <plat_crash_console_flush>

000000008000699c <_panic_handler>:
    8000699c:	aa0603fe 	mov	x30, x6
    800069a0:	140000a8 	b	80006c40 <plat_panic_handler>

00000000800069a4 <flush_dcache_range>:
    800069a4:	b40001a1 	cbz	x1, 800069d8 <exit_loop_civac>
    800069a8:	d53b0023 	mrs	x3, ctr_el0
    800069ac:	d3504c63 	ubfx	x3, x3, #16, #4
    800069b0:	d2800082 	mov	x2, #0x4                   	// #4
    800069b4:	9ac32042 	lsl	x2, x2, x3
    800069b8:	8b010001 	add	x1, x0, x1
    800069bc:	d1000443 	sub	x3, x2, #0x1
    800069c0:	8a230000 	bic	x0, x0, x3

00000000800069c4 <loop_civac>:
    800069c4:	d50b7e20 	dc	civac, x0
    800069c8:	8b020000 	add	x0, x0, x2
    800069cc:	eb01001f 	cmp	x0, x1
    800069d0:	54ffffa3 	b.cc	800069c4 <loop_civac>  // b.lo, b.ul, b.last
    800069d4:	d5033f9f 	dsb	sy

00000000800069d8 <exit_loop_civac>:
    800069d8:	d65f03c0 	ret

00000000800069dc <clean_dcache_range>:
    800069dc:	b40001a1 	cbz	x1, 80006a10 <exit_loop_cvac>
    800069e0:	d53b0023 	mrs	x3, ctr_el0
    800069e4:	d3504c63 	ubfx	x3, x3, #16, #4
    800069e8:	d2800082 	mov	x2, #0x4                   	// #4
    800069ec:	9ac32042 	lsl	x2, x2, x3
    800069f0:	8b010001 	add	x1, x0, x1
    800069f4:	d1000443 	sub	x3, x2, #0x1
    800069f8:	8a230000 	bic	x0, x0, x3

00000000800069fc <loop_cvac>:
    800069fc:	d50b7a20 	dc	cvac, x0
    80006a00:	8b020000 	add	x0, x0, x2
    80006a04:	eb01001f 	cmp	x0, x1
    80006a08:	54ffffa3 	b.cc	800069fc <loop_cvac>  // b.lo, b.ul, b.last
    80006a0c:	d5033f9f 	dsb	sy

0000000080006a10 <exit_loop_cvac>:
    80006a10:	d65f03c0 	ret

0000000080006a14 <inv_dcache_range>:
    80006a14:	b40001a1 	cbz	x1, 80006a48 <exit_loop_ivac>
    80006a18:	d53b0023 	mrs	x3, ctr_el0
    80006a1c:	d3504c63 	ubfx	x3, x3, #16, #4
    80006a20:	d2800082 	mov	x2, #0x4                   	// #4
    80006a24:	9ac32042 	lsl	x2, x2, x3
    80006a28:	8b010001 	add	x1, x0, x1
    80006a2c:	d1000443 	sub	x3, x2, #0x1
    80006a30:	8a230000 	bic	x0, x0, x3

0000000080006a34 <loop_ivac>:
    80006a34:	d5087620 	dc	ivac, x0
    80006a38:	8b020000 	add	x0, x0, x2
    80006a3c:	eb01001f 	cmp	x0, x1
    80006a40:	54ffffa3 	b.cc	80006a34 <loop_ivac>  // b.lo, b.ul, b.last
    80006a44:	d5033f9f 	dsb	sy

0000000080006a48 <exit_loop_ivac>:
    80006a48:	d65f03c0 	ret

0000000080006a4c <do_dcsw_op>:
    80006a4c:	b40003c3 	cbz	x3, 80006ac4 <exit>
    80006a50:	100003ce 	adr	x14, 80006ac8 <dcsw_loop_table>
    80006a54:	8b0015ce 	add	x14, x14, x0, lsl #5
    80006a58:	aa0903e0 	mov	x0, x9
    80006a5c:	52800028 	mov	w8, #0x1                   	// #1

0000000080006a60 <loop1>:
    80006a60:	8b4a0542 	add	x2, x10, x10, lsr #1
    80006a64:	9ac22401 	lsr	x1, x0, x2
    80006a68:	92400821 	and	x1, x1, #0x7
    80006a6c:	f100083f 	cmp	x1, #0x2
    80006a70:	540001e3 	b.cc	80006aac <level_done>  // b.lo, b.ul, b.last
    80006a74:	d51a000a 	msr	csselr_el1, x10
    80006a78:	d5033fdf 	isb
    80006a7c:	d5390001 	mrs	x1, ccsidr_el1
    80006a80:	92400822 	and	x2, x1, #0x7
    80006a84:	91001042 	add	x2, x2, #0x4
    80006a88:	d3433024 	ubfx	x4, x1, #3, #10
    80006a8c:	5ac01085 	clz	w5, w4
    80006a90:	1ac52089 	lsl	w9, w4, w5
    80006a94:	1ac52110 	lsl	w16, w8, w5
    80006a98:	2a090149 	orr	w9, w10, w9
    80006a9c:	530d6c26 	ubfx	w6, w1, #13, #15
    80006aa0:	1ac22111 	lsl	w17, w8, w2
    80006aa4:	d5033f9f 	dsb	sy
    80006aa8:	d61f01c0 	br	x14

0000000080006aac <level_done>:
    80006aac:	9100094a 	add	x10, x10, #0x2
    80006ab0:	eb0a007f 	cmp	x3, x10
    80006ab4:	54fffd68 	b.hi	80006a60 <loop1>  // b.pmore
    80006ab8:	d51a001f 	msr	csselr_el1, xzr
    80006abc:	d5033f9f 	dsb	sy
    80006ac0:	d5033fdf 	isb

0000000080006ac4 <exit>:
    80006ac4:	d65f03c0 	ret

0000000080006ac8 <dcsw_loop_table>:
    80006ac8:	1ac220c7 	lsl	w7, w6, w2

0000000080006acc <loop3_isw>:
    80006acc:	2a07012b 	orr	w11, w9, w7
    80006ad0:	d508764b 	dc	isw, x11
    80006ad4:	6b1100e7 	subs	w7, w7, w17
    80006ad8:	54ffffa2 	b.cs	80006acc <loop3_isw>  // b.hs, b.nlast
    80006adc:	eb100129 	subs	x9, x9, x16
    80006ae0:	54ffff42 	b.cs	80006ac8 <dcsw_loop_table>  // b.hs, b.nlast
    80006ae4:	17fffff2 	b	80006aac <level_done>

0000000080006ae8 <loop2_cisw>:
    80006ae8:	1ac220c7 	lsl	w7, w6, w2

0000000080006aec <loop3_cisw>:
    80006aec:	2a07012b 	orr	w11, w9, w7
    80006af0:	d5087e4b 	dc	cisw, x11
    80006af4:	6b1100e7 	subs	w7, w7, w17
    80006af8:	54ffffa2 	b.cs	80006aec <loop3_cisw>  // b.hs, b.nlast
    80006afc:	eb100129 	subs	x9, x9, x16
    80006b00:	54ffff42 	b.cs	80006ae8 <loop2_cisw>  // b.hs, b.nlast
    80006b04:	17ffffea 	b	80006aac <level_done>

0000000080006b08 <loop2_csw>:
    80006b08:	1ac220c7 	lsl	w7, w6, w2

0000000080006b0c <loop3_csw>:
    80006b0c:	2a07012b 	orr	w11, w9, w7
    80006b10:	d5087a4b 	dc	csw, x11
    80006b14:	6b1100e7 	subs	w7, w7, w17
    80006b18:	54ffffa2 	b.cs	80006b0c <loop3_csw>  // b.hs, b.nlast
    80006b1c:	eb100129 	subs	x9, x9, x16
    80006b20:	54ffff42 	b.cs	80006b08 <loop2_csw>  // b.hs, b.nlast
    80006b24:	17ffffe2 	b	80006aac <level_done>

0000000080006b28 <dcsw_op_level1>:
    80006b28:	d5390029 	mrs	x9, clidr_el1
    80006b2c:	d2800043 	mov	x3, #0x2                   	// #2
    80006b30:	d100086a 	sub	x10, x3, #0x2
    80006b34:	17ffffc6 	b	80006a4c <do_dcsw_op>

0000000080006b38 <dcsw_op_level2>:
    80006b38:	d5390029 	mrs	x9, clidr_el1
    80006b3c:	d2800083 	mov	x3, #0x4                   	// #4
    80006b40:	d100086a 	sub	x10, x3, #0x2
    80006b44:	17ffffc2 	b	80006a4c <do_dcsw_op>

0000000080006b48 <zeromem>:
    80006b48:	8b010002 	add	x2, x0, x1
    80006b4c:	14000030 	b	80006c0c <zero_normalmem+0xbc>

0000000080006b50 <zero_normalmem>:
    80006b50:	8b010002 	add	x2, x0, x1
    80006b54:	d53b00e3 	mrs	x3, dczid_el0
    80006b58:	d3400c63 	ubfx	x3, x3, #0, #4
    80006b5c:	d2800085 	mov	x5, #0x4                   	// #4
    80006b60:	9ac320a3 	lsl	x3, x5, x3
    80006b64:	eb03003f 	cmp	x1, x3
    80006b68:	54000523 	b.cc	80006c0c <zero_normalmem+0xbc>  // b.lo, b.ul, b.last
    80006b6c:	d1000461 	sub	x1, x3, #0x1
    80006b70:	ea01001f 	tst	x0, x1
    80006b74:	54000260 	b.eq	80006bc0 <zero_normalmem+0x70>  // b.none
    80006b78:	aa010004 	orr	x4, x0, x1
    80006b7c:	91000484 	add	x4, x4, #0x1
    80006b80:	b4000464 	cbz	x4, 80006c0c <zero_normalmem+0xbc>
    80006b84:	eb02009f 	cmp	x4, x2
    80006b88:	54000428 	b.hi	80006c0c <zero_normalmem+0xbc>  // b.pmore
    80006b8c:	f2400c1f 	tst	x0, #0xf
    80006b90:	540000e0 	b.eq	80006bac <zero_normalmem+0x5c>  // b.none
    80006b94:	b2400c05 	orr	x5, x0, #0xf
    80006b98:	910004a5 	add	x5, x5, #0x1
    80006b9c:	b4000385 	cbz	x5, 80006c0c <zero_normalmem+0xbc>
    80006ba0:	3800141f 	strb	wzr, [x0], #1
    80006ba4:	eb05001f 	cmp	x0, x5
    80006ba8:	54ffffc1 	b.ne	80006ba0 <zero_normalmem+0x50>  // b.any
    80006bac:	eb04001f 	cmp	x0, x4
    80006bb0:	54000082 	b.cs	80006bc0 <zero_normalmem+0x70>  // b.hs, b.nlast
    80006bb4:	a8817c1f 	stp	xzr, xzr, [x0], #16
    80006bb8:	eb04001f 	cmp	x0, x4
    80006bbc:	54ffffc3 	b.cc	80006bb4 <zero_normalmem+0x64>  // b.lo, b.ul, b.last
    80006bc0:	8a210044 	bic	x4, x2, x1
    80006bc4:	eb04001f 	cmp	x0, x4
    80006bc8:	540000a2 	b.cs	80006bdc <zero_normalmem+0x8c>  // b.hs, b.nlast
    80006bcc:	d50b7420 	dc	zva, x0
    80006bd0:	8b030000 	add	x0, x0, x3
    80006bd4:	eb04001f 	cmp	x0, x4
    80006bd8:	54ffffa3 	b.cc	80006bcc <zero_normalmem+0x7c>  // b.lo, b.ul, b.last
    80006bdc:	927cec44 	and	x4, x2, #0xfffffffffffffff0
    80006be0:	eb04001f 	cmp	x0, x4
    80006be4:	54000082 	b.cs	80006bf4 <zero_normalmem+0xa4>  // b.hs, b.nlast
    80006be8:	a8817c1f 	stp	xzr, xzr, [x0], #16
    80006bec:	eb04001f 	cmp	x0, x4
    80006bf0:	54ffffc3 	b.cc	80006be8 <zero_normalmem+0x98>  // b.lo, b.ul, b.last
    80006bf4:	eb02001f 	cmp	x0, x2
    80006bf8:	54000080 	b.eq	80006c08 <zero_normalmem+0xb8>  // b.none
    80006bfc:	3800141f 	strb	wzr, [x0], #1
    80006c00:	eb02001f 	cmp	x0, x2
    80006c04:	54ffffc1 	b.ne	80006bfc <zero_normalmem+0xac>  // b.any
    80006c08:	d65f03c0 	ret
    80006c0c:	f2400c1f 	tst	x0, #0xf
    80006c10:	54fffe60 	b.eq	80006bdc <zero_normalmem+0x8c>  // b.none
    80006c14:	b2400c04 	orr	x4, x0, #0xf
    80006c18:	91000484 	add	x4, x4, #0x1
    80006c1c:	b4fffec4 	cbz	x4, 80006bf4 <zero_normalmem+0xa4>
    80006c20:	eb02009f 	cmp	x4, x2
    80006c24:	54fffe82 	b.cs	80006bf4 <zero_normalmem+0xa4>  // b.hs, b.nlast
    80006c28:	3800141f 	strb	wzr, [x0], #1
    80006c2c:	eb04001f 	cmp	x0, x4
    80006c30:	54ffffc1 	b.ne	80006c28 <zero_normalmem+0xd8>  // b.any
    80006c34:	17ffffea 	b	80006bdc <zero_normalmem+0x8c>

0000000080006c38 <plat_crash_console_flush>:
    80006c38:	17fffdea 	b	800063e0 <console_flush>

0000000080006c3c <plat_disable_acp>:
    80006c3c:	d65f03c0 	ret

0000000080006c40 <plat_panic_handler>:
    80006c40:	d503207f 	wfi
    80006c44:	17ffffff 	b	80006c40 <plat_panic_handler>

0000000080006c48 <bl31_plat_enable_mmu>:
    80006c48:	17ffeb90 	b	80001a88 <enable_mmu_direct_el3>

0000000080006c4c <plat_handle_double_fault>:
    80006c4c:	17fffdfd 	b	80006440 <report_unhandled_exception>

0000000080006c50 <plat_handle_el3_ea>:
    80006c50:	17fffdfc 	b	80006440 <report_unhandled_exception>
    80006c54:	00000000 	.inst	0x00000000 ; undefined

0000000080006c58 <memcpy>:
    80006c58:	b40000e2 	cbz	x2, 80006c74 <memcpy+0x1c>
    80006c5c:	d2800003 	mov	x3, #0x0                   	// #0
    80006c60:	38636824 	ldrb	w4, [x1, x3]
    80006c64:	38236804 	strb	w4, [x0, x3]
    80006c68:	91000463 	add	x3, x3, #0x1
    80006c6c:	eb02007f 	cmp	x3, x2
    80006c70:	54ffff81 	b.ne	80006c60 <memcpy+0x8>  // b.any
    80006c74:	d65f03c0 	ret

0000000080006c78 <memmove>:
    80006c78:	cb010005 	sub	x5, x0, x1
    80006c7c:	aa0003e6 	mov	x6, x0
    80006c80:	eb0200bf 	cmp	x5, x2
    80006c84:	54000202 	b.cs	80006cc4 <memmove+0x4c>  // b.hs, b.nlast
    80006c88:	8b020005 	add	x5, x0, x2
    80006c8c:	8b020023 	add	x3, x1, x2
    80006c90:	eb05001f 	cmp	x0, x5
    80006c94:	54000140 	b.eq	80006cbc <memmove+0x44>  // b.none
    80006c98:	d1000404 	sub	x4, x0, #0x1
    80006c9c:	92800001 	mov	x1, #0xffffffffffffffff    	// #-1
    80006ca0:	cb050084 	sub	x4, x4, x5
    80006ca4:	d503201f 	nop
    80006ca8:	38616862 	ldrb	w2, [x3, x1]
    80006cac:	382168a2 	strb	w2, [x5, x1]
    80006cb0:	d1000421 	sub	x1, x1, #0x1
    80006cb4:	eb04003f 	cmp	x1, x4
    80006cb8:	54ffff81 	b.ne	80006ca8 <memmove+0x30>  // b.any
    80006cbc:	aa0603e0 	mov	x0, x6
    80006cc0:	d65f03c0 	ret
    80006cc4:	17ffffe5 	b	80006c58 <memcpy>

0000000080006cc8 <memset>:
    80006cc8:	8b020004 	add	x4, x0, x2
    80006ccc:	12001c21 	and	w1, w1, #0xff
    80006cd0:	aa0003e3 	mov	x3, x0
    80006cd4:	b4000082 	cbz	x2, 80006ce4 <memset+0x1c>
    80006cd8:	38001461 	strb	w1, [x3], #1
    80006cdc:	eb04007f 	cmp	x3, x4
    80006ce0:	54ffffc1 	b.ne	80006cd8 <memset+0x10>  // b.any
    80006ce4:	d65f03c0 	ret

0000000080006ce8 <unsigned_num_print>:
    80006ce8:	a9ba7bfd 	stp	x29, x30, [sp, #-96]!
    80006cec:	2a0103e1 	mov	w1, w1
    80006cf0:	910003fd 	mov	x29, sp
    80006cf4:	910123e5 	add	x5, sp, #0x48
    80006cf8:	a90153f3 	stp	x19, x20, [sp, #16]
    80006cfc:	12001c54 	and	w20, w2, #0xff
    80006d00:	a9025bf5 	stp	x21, x22, [sp, #32]
    80006d04:	2a0303f6 	mov	w22, w3
    80006d08:	52800015 	mov	w21, #0x0                   	// #0
    80006d0c:	a90363f7 	stp	x23, x24, [sp, #48]
    80006d10:	14000002 	b	80006d18 <unsigned_num_print+0x30>
    80006d14:	2a1703f5 	mov	w21, w23
    80006d18:	9ac10803 	udiv	x3, x0, x1
    80006d1c:	110006b7 	add	w23, w21, #0x1
    80006d20:	9b018064 	msub	x4, x3, x1, x0
    80006d24:	12001c82 	and	w2, w4, #0xff
    80006d28:	f100249f 	cmp	x4, #0x9
    80006d2c:	11015c53 	add	w19, w2, #0x57
    80006d30:	1100c044 	add	w4, w2, #0x30
    80006d34:	12001c82 	and	w2, w4, #0xff
    80006d38:	12001e73 	and	w19, w19, #0xff
    80006d3c:	1a828273 	csel	w19, w19, w2, hi  // hi = pmore
    80006d40:	380014b3 	strb	w19, [x5], #1
    80006d44:	eb01001f 	cmp	x0, x1
    80006d48:	aa0303e0 	mov	x0, x3
    80006d4c:	54fffe42 	b.cs	80006d14 <unsigned_num_print+0x2c>  // b.hs, b.nlast
    80006d50:	710002df 	cmp	w22, #0x0
    80006d54:	52800018 	mov	w24, #0x0                   	// #0
    80006d58:	5400014d 	b.le	80006d80 <unsigned_num_print+0x98>
    80006d5c:	6b1602ff 	cmp	w23, w22
    80006d60:	5400010a 	b.ge	80006d80 <unsigned_num_print+0x98>  // b.tcont
    80006d64:	2a1603f8 	mov	w24, w22
    80006d68:	51000718 	sub	w24, w24, #0x1
    80006d6c:	2a1403e0 	mov	w0, w20
    80006d70:	94000154 	bl	800072c0 <putchar>
    80006d74:	6b1802ff 	cmp	w23, w24
    80006d78:	54ffff81 	b.ne	80006d68 <unsigned_num_print+0x80>  // b.any
    80006d7c:	4b1702d8 	sub	w24, w22, w23
    80006d80:	910123e0 	add	x0, sp, #0x48
    80006d84:	8b35c014 	add	x20, x0, w21, sxtw
    80006d88:	d1000416 	sub	x22, x0, #0x1
    80006d8c:	14000002 	b	80006d94 <unsigned_num_print+0xac>
    80006d90:	39400293 	ldrb	w19, [x20]
    80006d94:	2a1303e0 	mov	w0, w19
    80006d98:	d1000694 	sub	x20, x20, #0x1
    80006d9c:	94000149 	bl	800072c0 <putchar>
    80006da0:	eb1402df 	cmp	x22, x20
    80006da4:	54ffff61 	b.ne	80006d90 <unsigned_num_print+0xa8>  // b.any
    80006da8:	11000700 	add	w0, w24, #0x1
    80006dac:	0b0002a0 	add	w0, w21, w0
    80006db0:	a94153f3 	ldp	x19, x20, [sp, #16]
    80006db4:	a9425bf5 	ldp	x21, x22, [sp, #32]
    80006db8:	a94363f7 	ldp	x23, x24, [sp, #48]
    80006dbc:	a8c67bfd 	ldp	x29, x30, [sp], #96
    80006dc0:	d65f03c0 	ret
    80006dc4:	00000000 	.inst	0x00000000 ; undefined

0000000080006dc8 <vprintf>:
    80006dc8:	a9b97bfd 	stp	x29, x30, [sp, #-112]!
    80006dcc:	aa0003e2 	mov	x2, x0
    80006dd0:	910003fd 	mov	x29, sp
    80006dd4:	a90153f3 	stp	x19, x20, [sp, #16]
    80006dd8:	a9025bf5 	stp	x21, x22, [sp, #32]
    80006ddc:	b9401835 	ldr	w21, [x1, #24]
    80006de0:	39400000 	ldrb	w0, [x0]
    80006de4:	a9400c34 	ldp	x20, x3, [x1]
    80006de8:	f90033e3 	str	x3, [sp, #96]
    80006dec:	34002080 	cbz	w0, 800071fc <vprintf+0x434>
    80006df0:	b0000016 	adrp	x22, 80007000 <vprintf+0x238>
    80006df4:	912602d6 	add	x22, x22, #0x980
    80006df8:	52800013 	mov	w19, #0x0                   	// #0
    80006dfc:	a90363f7 	stp	x23, x24, [sp, #48]
    80006e00:	52800017 	mov	w23, #0x0                   	// #0
    80006e04:	a9046bf9 	stp	x25, x26, [sp, #64]
    80006e08:	52800039 	mov	w25, #0x1                   	// #1
    80006e0c:	4b160338 	sub	w24, w25, w22
    80006e10:	a90573fb 	stp	x27, x28, [sp, #80]
    80006e14:	14000006 	b	80006e2c <vprintf+0x64>
    80006e18:	9400012a 	bl	800072c0 <putchar>
    80006e1c:	11000673 	add	w19, w19, #0x1
    80006e20:	aa1b03e2 	mov	x2, x27
    80006e24:	39400040 	ldrb	w0, [x2]
    80006e28:	34000400 	cbz	w0, 80006ea8 <vprintf+0xe0>
    80006e2c:	7100941f 	cmp	w0, #0x25
    80006e30:	9100045b 	add	x27, x2, #0x1
    80006e34:	54ffff21 	b.ne	80006e18 <vprintf+0x50>  // b.any
    80006e38:	39400440 	ldrb	w0, [x2, #1]
    80006e3c:	5280001a 	mov	w26, #0x0                   	// #0
    80006e40:	52800004 	mov	w4, #0x0                   	// #0
    80006e44:	7101c01f 	cmp	w0, #0x70
    80006e48:	54000540 	b.eq	80006ef0 <vprintf+0x128>  // b.none
    80006e4c:	540003e9 	b.ls	80006ec8 <vprintf+0x100>  // b.plast
    80006e50:	7101e01f 	cmp	w0, #0x78
    80006e54:	54000d40 	b.eq	80006ffc <vprintf+0x234>  // b.none
    80006e58:	540006a8 	b.hi	80006f2c <vprintf+0x164>  // b.pmore
    80006e5c:	7101cc1f 	cmp	w0, #0x73
    80006e60:	54000ea0 	b.eq	80007034 <vprintf+0x26c>  // b.none
    80006e64:	7101d41f 	cmp	w0, #0x75
    80006e68:	54000b81 	b.ne	80006fd8 <vprintf+0x210>  // b.any
    80006e6c:	7100049f 	cmp	w4, #0x1
    80006e70:	5400124d 	b.le	800070b8 <vprintf+0x2f0>
    80006e74:	37f81495 	tbnz	w21, #31, 80007104 <vprintf+0x33c>
    80006e78:	91003e81 	add	x1, x20, #0xf
    80006e7c:	aa1403e0 	mov	x0, x20
    80006e80:	927df034 	and	x20, x1, #0xfffffffffffffff8
    80006e84:	f9400000 	ldr	x0, [x0]
    80006e88:	2a1a03e3 	mov	w3, w26
    80006e8c:	2a1703e2 	mov	w2, w23
    80006e90:	52800141 	mov	w1, #0xa                   	// #10
    80006e94:	97ffff95 	bl	80006ce8 <unsigned_num_print>
    80006e98:	0b000273 	add	w19, w19, w0
    80006e9c:	91000762 	add	x2, x27, #0x1
    80006ea0:	39400040 	ldrb	w0, [x2]
    80006ea4:	35fffc40 	cbnz	w0, 80006e2c <vprintf+0x64>
    80006ea8:	2a1303e0 	mov	w0, w19
    80006eac:	a94153f3 	ldp	x19, x20, [sp, #16]
    80006eb0:	a9425bf5 	ldp	x21, x22, [sp, #32]
    80006eb4:	a94363f7 	ldp	x23, x24, [sp, #48]
    80006eb8:	a9446bf9 	ldp	x25, x26, [sp, #64]
    80006ebc:	a94573fb 	ldp	x27, x28, [sp, #80]
    80006ec0:	a8c77bfd 	ldp	x29, x30, [sp], #112
    80006ec4:	d65f03c0 	ret
    80006ec8:	7101a41f 	cmp	w0, #0x69
    80006ecc:	54000660 	b.eq	80006f98 <vprintf+0x1d0>  // b.none
    80006ed0:	540003a9 	b.ls	80006f44 <vprintf+0x17c>  // b.plast
    80006ed4:	7101b01f 	cmp	w0, #0x6c
    80006ed8:	54000801 	b.ne	80006fd8 <vprintf+0x210>  // b.any
    80006edc:	39400760 	ldrb	w0, [x27, #1]
    80006ee0:	11000484 	add	w4, w4, #0x1
    80006ee4:	9100077b 	add	x27, x27, #0x1
    80006ee8:	7101c01f 	cmp	w0, #0x70
    80006eec:	54fffb01 	b.ne	80006e4c <vprintf+0x84>  // b.any
    80006ef0:	37f813d5 	tbnz	w21, #31, 80007168 <vprintf+0x3a0>
    80006ef4:	91003e81 	add	x1, x20, #0xf
    80006ef8:	aa1403e0 	mov	x0, x20
    80006efc:	927df034 	and	x20, x1, #0xfffffffffffffff8
    80006f00:	f9400000 	ldr	x0, [x0]
    80006f04:	f90037e0 	str	x0, [sp, #104]
    80006f08:	b5000b60 	cbnz	x0, 80007074 <vprintf+0x2ac>
    80006f0c:	f94037e0 	ldr	x0, [sp, #104]
    80006f10:	2a1703e2 	mov	w2, w23
    80006f14:	2a1a03e3 	mov	w3, w26
    80006f18:	52800201 	mov	w1, #0x10                  	// #16
    80006f1c:	97ffff73 	bl	80006ce8 <unsigned_num_print>
    80006f20:	0b000273 	add	w19, w19, w0
    80006f24:	91000762 	add	x2, x27, #0x1
    80006f28:	17ffffde 	b	80006ea0 <vprintf+0xd8>
    80006f2c:	7101e81f 	cmp	w0, #0x7a
    80006f30:	54000541 	b.ne	80006fd8 <vprintf+0x210>  // b.any
    80006f34:	39400760 	ldrb	w0, [x27, #1]
    80006f38:	52800044 	mov	w4, #0x2                   	// #2
    80006f3c:	9100077b 	add	x27, x27, #0x1
    80006f40:	17ffffc1 	b	80006e44 <vprintf+0x7c>
    80006f44:	7100c01f 	cmp	w0, #0x30
    80006f48:	54000241 	b.ne	80006f90 <vprintf+0x1c8>  // b.any
    80006f4c:	39400762 	ldrb	w2, [x27, #1]
    80006f50:	9100077b 	add	x27, x27, #0x1
    80006f54:	5100c041 	sub	w1, w2, #0x30
    80006f58:	12001c23 	and	w3, w1, #0xff
    80006f5c:	7100247f 	cmp	w3, #0x9
    80006f60:	54001528 	b.hi	80007204 <vprintf+0x43c>  // b.pmore
    80006f64:	5280001a 	mov	w26, #0x0                   	// #0
    80006f68:	38401f62 	ldrb	w2, [x27, #1]!
    80006f6c:	0b1a0b43 	add	w3, w26, w26, lsl #2
    80006f70:	0b03043a 	add	w26, w1, w3, lsl #1
    80006f74:	5100c041 	sub	w1, w2, #0x30
    80006f78:	12001c20 	and	w0, w1, #0xff
    80006f7c:	7100241f 	cmp	w0, #0x9
    80006f80:	54ffff49 	b.ls	80006f68 <vprintf+0x1a0>  // b.plast
    80006f84:	2a0203e0 	mov	w0, w2
    80006f88:	52800617 	mov	w23, #0x30                  	// #48
    80006f8c:	17ffffae 	b	80006e44 <vprintf+0x7c>
    80006f90:	7101901f 	cmp	w0, #0x64
    80006f94:	54000221 	b.ne	80006fd8 <vprintf+0x210>  // b.any
    80006f98:	7100049f 	cmp	w4, #0x1
    80006f9c:	540009cd 	b.le	800070d4 <vprintf+0x30c>
    80006fa0:	37f80d35 	tbnz	w21, #31, 80007144 <vprintf+0x37c>
    80006fa4:	aa1403e0 	mov	x0, x20
    80006fa8:	91003e81 	add	x1, x20, #0xf
    80006fac:	927df034 	and	x20, x1, #0xfffffffffffffff8
    80006fb0:	f940001c 	ldr	x28, [x0]
    80006fb4:	b7f809fc 	tbnz	x28, #63, 800070f0 <vprintf+0x328>
    80006fb8:	2a1703e2 	mov	w2, w23
    80006fbc:	2a1a03e3 	mov	w3, w26
    80006fc0:	aa1c03e0 	mov	x0, x28
    80006fc4:	52800141 	mov	w1, #0xa                   	// #10
    80006fc8:	97ffff48 	bl	80006ce8 <unsigned_num_print>
    80006fcc:	0b000273 	add	w19, w19, w0
    80006fd0:	91000762 	add	x2, x27, #0x1
    80006fd4:	17ffffb3 	b	80006ea0 <vprintf+0xd8>
    80006fd8:	a94363f7 	ldp	x23, x24, [sp, #48]
    80006fdc:	12800013 	mov	w19, #0xffffffff            	// #-1
    80006fe0:	a9446bf9 	ldp	x25, x26, [sp, #64]
    80006fe4:	a94573fb 	ldp	x27, x28, [sp, #80]
    80006fe8:	2a1303e0 	mov	w0, w19
    80006fec:	a94153f3 	ldp	x19, x20, [sp, #16]
    80006ff0:	a9425bf5 	ldp	x21, x22, [sp, #32]
    80006ff4:	a8c77bfd 	ldp	x29, x30, [sp], #112
    80006ff8:	d65f03c0 	ret
    80006ffc:	7100049f 	cmp	w4, #0x1
    80007000:	540004ed 	b.le	8000709c <vprintf+0x2d4>
    80007004:	37f80915 	tbnz	w21, #31, 80007124 <vprintf+0x35c>
    80007008:	91003e81 	add	x1, x20, #0xf
    8000700c:	aa1403e0 	mov	x0, x20
    80007010:	927df034 	and	x20, x1, #0xfffffffffffffff8
    80007014:	f9400000 	ldr	x0, [x0]
    80007018:	2a1703e2 	mov	w2, w23
    8000701c:	2a1a03e3 	mov	w3, w26
    80007020:	52800201 	mov	w1, #0x10                  	// #16
    80007024:	97ffff31 	bl	80006ce8 <unsigned_num_print>
    80007028:	0b000273 	add	w19, w19, w0
    8000702c:	91000762 	add	x2, x27, #0x1
    80007030:	17ffff9c 	b	80006ea0 <vprintf+0xd8>
    80007034:	37f80ab5 	tbnz	w21, #31, 80007188 <vprintf+0x3c0>
    80007038:	91003e81 	add	x1, x20, #0xf
    8000703c:	aa1403e0 	mov	x0, x20
    80007040:	927df034 	and	x20, x1, #0xfffffffffffffff8
    80007044:	f9400001 	ldr	x1, [x0]
    80007048:	39400020 	ldrb	w0, [x1]
    8000704c:	34fff280 	cbz	w0, 80006e9c <vprintf+0xd4>
    80007050:	aa0103fa 	mov	x26, x1
    80007054:	4b01033c 	sub	w28, w25, w1
    80007058:	9400009a 	bl	800072c0 <putchar>
    8000705c:	0b1a0382 	add	w2, w28, w26
    80007060:	38401f40 	ldrb	w0, [x26, #1]!
    80007064:	35ffffa0 	cbnz	w0, 80007058 <vprintf+0x290>
    80007068:	0b020273 	add	w19, w19, w2
    8000706c:	91000762 	add	x2, x27, #0x1
    80007070:	17ffff8c 	b	80006ea0 <vprintf+0xd8>
    80007074:	aa1603fc 	mov	x28, x22
    80007078:	52800600 	mov	w0, #0x30                  	// #48
    8000707c:	d503201f 	nop
    80007080:	94000090 	bl	800072c0 <putchar>
    80007084:	0b1c0302 	add	w2, w24, w28
    80007088:	38401f80 	ldrb	w0, [x28, #1]!
    8000708c:	35ffffa0 	cbnz	w0, 80007080 <vprintf+0x2b8>
    80007090:	0b020273 	add	w19, w19, w2
    80007094:	51000b5a 	sub	w26, w26, #0x2
    80007098:	17ffff9d 	b	80006f0c <vprintf+0x144>
    8000709c:	54fffb40 	b.eq	80007004 <vprintf+0x23c>  // b.none
    800070a0:	37f80df5 	tbnz	w21, #31, 8000725c <vprintf+0x494>
    800070a4:	aa1403e0 	mov	x0, x20
    800070a8:	91002e81 	add	x1, x20, #0xb
    800070ac:	927df034 	and	x20, x1, #0xfffffffffffffff8
    800070b0:	b9400000 	ldr	w0, [x0]
    800070b4:	17ffffd9 	b	80007018 <vprintf+0x250>
    800070b8:	54ffede0 	b.eq	80006e74 <vprintf+0xac>  // b.none
    800070bc:	37f80bf5 	tbnz	w21, #31, 80007238 <vprintf+0x470>
    800070c0:	aa1403e0 	mov	x0, x20
    800070c4:	91002e81 	add	x1, x20, #0xb
    800070c8:	927df034 	and	x20, x1, #0xfffffffffffffff8
    800070cc:	b9400000 	ldr	w0, [x0]
    800070d0:	17ffff6e 	b	80006e88 <vprintf+0xc0>
    800070d4:	54fff660 	b.eq	80006fa0 <vprintf+0x1d8>  // b.none
    800070d8:	37f809f5 	tbnz	w21, #31, 80007214 <vprintf+0x44c>
    800070dc:	aa1403e0 	mov	x0, x20
    800070e0:	91002e81 	add	x1, x20, #0xb
    800070e4:	927df034 	and	x20, x1, #0xfffffffffffffff8
    800070e8:	b980001c 	ldrsw	x28, [x0]
    800070ec:	b6fff67c 	tbz	x28, #63, 80006fb8 <vprintf+0x1f0>
    800070f0:	cb1c03fc 	neg	x28, x28
    800070f4:	5100075a 	sub	w26, w26, #0x1
    800070f8:	528005a0 	mov	w0, #0x2d                  	// #45
    800070fc:	94000071 	bl	800072c0 <putchar>
    80007100:	17ffffae 	b	80006fb8 <vprintf+0x1f0>
    80007104:	110022a1 	add	w1, w21, #0x8
    80007108:	7100003f 	cmp	w1, #0x0
    8000710c:	5400068d 	b.le	800071dc <vprintf+0x414>
    80007110:	91003e82 	add	x2, x20, #0xf
    80007114:	aa1403e0 	mov	x0, x20
    80007118:	2a0103f5 	mov	w21, w1
    8000711c:	927df054 	and	x20, x2, #0xfffffffffffffff8
    80007120:	17ffff59 	b	80006e84 <vprintf+0xbc>
    80007124:	110022a1 	add	w1, w21, #0x8
    80007128:	7100003f 	cmp	w1, #0x0
    8000712c:	5400060d 	b.le	800071ec <vprintf+0x424>
    80007130:	91003e82 	add	x2, x20, #0xf
    80007134:	aa1403e0 	mov	x0, x20
    80007138:	2a0103f5 	mov	w21, w1
    8000713c:	927df054 	and	x20, x2, #0xfffffffffffffff8
    80007140:	17ffffb5 	b	80007014 <vprintf+0x24c>
    80007144:	110022a1 	add	w1, w21, #0x8
    80007148:	7100003f 	cmp	w1, #0x0
    8000714c:	540003ed 	b.le	800071c8 <vprintf+0x400>
    80007150:	aa1403e0 	mov	x0, x20
    80007154:	91003e82 	add	x2, x20, #0xf
    80007158:	2a0103f5 	mov	w21, w1
    8000715c:	927df054 	and	x20, x2, #0xfffffffffffffff8
    80007160:	f940001c 	ldr	x28, [x0]
    80007164:	17ffff94 	b	80006fb4 <vprintf+0x1ec>
    80007168:	110022a1 	add	w1, w21, #0x8
    8000716c:	7100003f 	cmp	w1, #0x0
    80007170:	5400024d 	b.le	800071b8 <vprintf+0x3f0>
    80007174:	91003e82 	add	x2, x20, #0xf
    80007178:	aa1403e0 	mov	x0, x20
    8000717c:	2a0103f5 	mov	w21, w1
    80007180:	927df054 	and	x20, x2, #0xfffffffffffffff8
    80007184:	17ffff5f 	b	80006f00 <vprintf+0x138>
    80007188:	110022a1 	add	w1, w21, #0x8
    8000718c:	7100003f 	cmp	w1, #0x0
    80007190:	540000cd 	b.le	800071a8 <vprintf+0x3e0>
    80007194:	91003e82 	add	x2, x20, #0xf
    80007198:	aa1403e0 	mov	x0, x20
    8000719c:	2a0103f5 	mov	w21, w1
    800071a0:	927df054 	and	x20, x2, #0xfffffffffffffff8
    800071a4:	17ffffa8 	b	80007044 <vprintf+0x27c>
    800071a8:	f94033e0 	ldr	x0, [sp, #96]
    800071ac:	8b35c000 	add	x0, x0, w21, sxtw
    800071b0:	2a0103f5 	mov	w21, w1
    800071b4:	17ffffa4 	b	80007044 <vprintf+0x27c>
    800071b8:	f94033e0 	ldr	x0, [sp, #96]
    800071bc:	8b35c000 	add	x0, x0, w21, sxtw
    800071c0:	2a0103f5 	mov	w21, w1
    800071c4:	17ffff4f 	b	80006f00 <vprintf+0x138>
    800071c8:	f94033e0 	ldr	x0, [sp, #96]
    800071cc:	8b35c000 	add	x0, x0, w21, sxtw
    800071d0:	2a0103f5 	mov	w21, w1
    800071d4:	f940001c 	ldr	x28, [x0]
    800071d8:	17ffff77 	b	80006fb4 <vprintf+0x1ec>
    800071dc:	f94033e0 	ldr	x0, [sp, #96]
    800071e0:	8b35c000 	add	x0, x0, w21, sxtw
    800071e4:	2a0103f5 	mov	w21, w1
    800071e8:	17ffff27 	b	80006e84 <vprintf+0xbc>
    800071ec:	f94033e0 	ldr	x0, [sp, #96]
    800071f0:	8b35c000 	add	x0, x0, w21, sxtw
    800071f4:	2a0103f5 	mov	w21, w1
    800071f8:	17ffff87 	b	80007014 <vprintf+0x24c>
    800071fc:	52800013 	mov	w19, #0x0                   	// #0
    80007200:	17ffff7a 	b	80006fe8 <vprintf+0x220>
    80007204:	2a0003f7 	mov	w23, w0
    80007208:	5280001a 	mov	w26, #0x0                   	// #0
    8000720c:	2a0203e0 	mov	w0, w2
    80007210:	17ffff0d 	b	80006e44 <vprintf+0x7c>
    80007214:	110022a1 	add	w1, w21, #0x8
    80007218:	7100003f 	cmp	w1, #0x0
    8000721c:	5400032d 	b.le	80007280 <vprintf+0x4b8>
    80007220:	aa1403e0 	mov	x0, x20
    80007224:	91002e82 	add	x2, x20, #0xb
    80007228:	2a0103f5 	mov	w21, w1
    8000722c:	927df054 	and	x20, x2, #0xfffffffffffffff8
    80007230:	b980001c 	ldrsw	x28, [x0]
    80007234:	17ffffae 	b	800070ec <vprintf+0x324>
    80007238:	110022a1 	add	w1, w21, #0x8
    8000723c:	7100003f 	cmp	w1, #0x0
    80007240:	540002ad 	b.le	80007294 <vprintf+0x4cc>
    80007244:	aa1403e0 	mov	x0, x20
    80007248:	91002e82 	add	x2, x20, #0xb
    8000724c:	2a0103f5 	mov	w21, w1
    80007250:	927df054 	and	x20, x2, #0xfffffffffffffff8
    80007254:	b9400000 	ldr	w0, [x0]
    80007258:	17ffff0c 	b	80006e88 <vprintf+0xc0>
    8000725c:	110022a1 	add	w1, w21, #0x8
    80007260:	7100003f 	cmp	w1, #0x0
    80007264:	5400022d 	b.le	800072a8 <vprintf+0x4e0>
    80007268:	aa1403e0 	mov	x0, x20
    8000726c:	91002e82 	add	x2, x20, #0xb
    80007270:	2a0103f5 	mov	w21, w1
    80007274:	927df054 	and	x20, x2, #0xfffffffffffffff8
    80007278:	b9400000 	ldr	w0, [x0]
    8000727c:	17ffff67 	b	80007018 <vprintf+0x250>
    80007280:	f94033e0 	ldr	x0, [sp, #96]
    80007284:	8b35c000 	add	x0, x0, w21, sxtw
    80007288:	2a0103f5 	mov	w21, w1
    8000728c:	b980001c 	ldrsw	x28, [x0]
    80007290:	17ffff97 	b	800070ec <vprintf+0x324>
    80007294:	f94033e0 	ldr	x0, [sp, #96]
    80007298:	8b35c000 	add	x0, x0, w21, sxtw
    8000729c:	2a0103f5 	mov	w21, w1
    800072a0:	b9400000 	ldr	w0, [x0]
    800072a4:	17fffef9 	b	80006e88 <vprintf+0xc0>
    800072a8:	f94033e0 	ldr	x0, [sp, #96]
    800072ac:	8b35c000 	add	x0, x0, w21, sxtw
    800072b0:	2a0103f5 	mov	w21, w1
    800072b4:	b9400000 	ldr	w0, [x0]
    800072b8:	17ffff58 	b	80007018 <vprintf+0x250>
    800072bc:	00000000 	.inst	0x00000000 ; undefined

00000000800072c0 <putchar>:
    800072c0:	a9be7bfd 	stp	x29, x30, [sp, #-32]!
    800072c4:	910003fd 	mov	x29, sp
    800072c8:	f9000bf3 	str	x19, [sp, #16]
    800072cc:	2a0003f3 	mov	w19, w0
    800072d0:	12001c00 	and	w0, w0, #0xff
    800072d4:	97fffc29 	bl	80006378 <console_putc>
    800072d8:	7100001f 	cmp	w0, #0x0
    800072dc:	5a9fa260 	csinv	w0, w19, wzr, ge  // ge = tcont
    800072e0:	f9400bf3 	ldr	x19, [sp, #16]
    800072e4:	a8c27bfd 	ldp	x29, x30, [sp], #32
    800072e8:	d65f03c0 	ret
    800072ec:	00000000 	.inst	0x00000000 ; undefined

00000000800072f0 <strchr>:
    800072f0:	39400002 	ldrb	w2, [x0]
    800072f4:	12001c23 	and	w3, w1, #0xff
    800072f8:	6b21005f 	cmp	w2, w1, uxtb
    800072fc:	540000a0 	b.eq	80007310 <strchr+0x20>  // b.none
    80007300:	340000a2 	cbz	w2, 80007314 <strchr+0x24>
    80007304:	38401c02 	ldrb	w2, [x0, #1]!
    80007308:	6b03005f 	cmp	w2, w3
    8000730c:	54ffffa1 	b.ne	80007300 <strchr+0x10>  // b.any
    80007310:	d65f03c0 	ret
    80007314:	d2800000 	mov	x0, #0x0                   	// #0
    80007318:	d65f03c0 	ret
    8000731c:	00000000 	.inst	0x00000000 ; undefined

0000000080007320 <build_message>:
    80007320:	6c697542 203a2074 333a3531 38333a35     Built : 15:35:38
    80007330:	754a202c 3133206c 32303220 00000030     , Jul 31 2020...

0000000080007340 <version_string>:
    80007340:	302e3276 6c657228 65736165 666c3a29     v2.0(release):lf
    80007350:	342e352d 312d792e 302e302e 672d302d     -5.4.y-1.0.0-0-g
    80007360:	33336237 2d643938 74726964 00000079     7b3389d-dirty...
    80007370:	7465470a 55504320 20646920 20646e61     .Get CPU id and 
    80007380:	20766572 6c696166 000a6465 00000000     rev failed......
    80007390:	5f63730a 735f6d72 725f7465 756f7365     .sc_rm_set_resou
    800073a0:	5f656372 61766f6d 3a656c62 72737220     rce_movable: rsr
    800073b0:	75252063 6572202c 75252074 0000000a     c %u, ret %u....
    800073c0:	6d654d0a 20676572 20746567 6f666e69     .Memreg get info
    800073d0:	69616620 2c64656c 0a752520 00000000      failed, %u.....
    800073e0:	6d654d14 20676572 30207525 6c6c2578     .Memreg %u 0x%ll
    800073f0:	2d2d2078 25783020 0a786c6c 00000000     x -- 0x%llx.....
    80007400:	6d654d0a 20676572 69737361 66206e67     .Memreg assign f
    80007410:	656c6961 30202c64 6c6c2578 2d2d2078     ailed, 0x%llx --
    80007420:	25783020 2c786c6c 72726520 0a642520      0x%llx, err %d.
	...
    80007438:	5f63730a 6d5f6d72 65726d65 6c615f67     .sc_rm_memreg_al
    80007448:	20636f6c 6c696166 202c6465 6c257830     loc failed, 0x%l
    80007458:	2d20786c 7830202d 786c6c25 0000000a     lx -- 0x%llx....
    80007468:	6d654d0a 20676572 69737361 66206e67     .Memreg assign f
    80007478:	656c6961 30202c64 6c6c2578 2d2d2078     ailed, 0x%llx --
    80007488:	25783020 0a786c6c 00000000 00000000      0x%llx.........
    80007498:	5f63730a 6d5f6d72 5f65766f 3a6c6c61     .sc_rm_move_all:
    800074a8:	0a752520 00000000 5f63730a 735f6d72      %u......sc_rm_s
    800074b8:	705f7465 70697265 61726568 65705f6c     et_peripheral_pe
    800074c8:	73696d72 6e6f6973 72203a73 20637273     rmissions: rsrc 
    800074d8:	202c7525 09090909 20746572 000a7525     %u, ....ret %u..
    800074e8:	5f63730a 615f6d72 67697373 65725f6e     .sc_rm_assign_re
    800074f8:	72756f73 203a6563 63727372 2c752520     source: rsrc %u,
    80007508:	74657220 0a752520 00000000 00000000      ret %u.........
    80007518:	72615014 69746974 6e696e6f 61462067     .Partitioning Fa
    80007528:	64656c69 0000000a 6e6f4e14 6365732d     iled.....Non-sec
    80007538:	20657275 74726150 6f697469 676e696e     ure Partitioning
    80007548:	63755320 64656563 000a6465 00000000      Succeeded......

0000000080007558 <imx8qm_cci_map>:
    80007558:	00000003 00000004                       ........

0000000080007560 <imx_mmap>:
    80007560:	50000000 00000000 50000000 00000000     ...P.......P....
    80007570:	10000000 00000000 00000008 00000000     ................
	...
    800075a0:	726f630a 64252065 776f7020 6f207265     .core %d power o
    800075b0:	6166206e 64656c69 00000a21 00000000     n failed!.......
    800075c0:	6f6f620a 6f632074 25206572 61662064     .boot core %d fa
    800075d0:	64656c69 00000a21                       iled!...

00000000800075d8 <ap_core_index>:
    800075d8:	00000001 00000002 00000003 00000004     ................
    800075e8:	00000006 00000007                       ........

00000000800075f0 <imx_plat_psci_ops>:
	...
    800075f8:	80000a40 00000000 80000b58 00000000     @.......X.......
	...
    80007610:	80000be8 00000000 80000b20 00000000     ........ .......
    80007620:	80000ef0 00000000 80001450 00000000     ........P.......
    80007630:	800012f0 00000000 80001320 00000000     ........ .......
    80007640:	800013f0 00000000 80000a38 00000000     ........8.......
    80007650:	80001438 00000000 00000000 00000000     8...............
	...
    80007688:	80001350 00000000                       P.......

0000000080007690 <imx_power_domain_tree_desc>:
    80007690:	02040201 00000000 776f700a 6f207265     .........power o
    800076a0:	66206666 656c6961 000a2e64 00000000     ff failed.......
    800076b0:	7379730a 206d6574 65736572 61662074     .system reset fa
    800076c0:	64656c69 00000a2e 6d726177 00000000     iled....warm....
    800076d0:	646c6f63 00000000 72616f62 00000064     cold....board...
    800076e0:	7379730a 206d6574 72207325 74657365     .system %s reset
    800076f0:	69616620 2e64656c 0000000a 00000000      failed.........

0000000080007700 <ap_cluster_index>:
    80007700:	00000000 00000005 70697314 63767320     .........sip svc
    80007710:	696e6920 00000a74 5f786d69 00637673      init...imx_svc.

0000000080007720 <CSWTCH.10>:
    80007720:	00000000 00000002 00000001 00000003     ................

0000000080007730 <arm_gic_data>:
    80007730:	51a00000 00000000 51b00000 00000000     ...Q.......Q....
    80007740:	80007760 00000000 00000001 00000006     `w..............
    80007750:	8000e210 00000000 80002ed8 00000000     ................

0000000080007760 <g01s_interrupt_props>:
    80007760:	00040008 00000000 314c450a 70757320     .........EL1 sup
    80007770:	74726f70 41412073 36686372 6e6f2d34     ports AArch64-on
    80007780:	202e796c 61656c50 73206573 62207465     ly. Please set b
    80007790:	646c6975 616c6620 54432067 4e495f58     uild flag CTX_IN
    800077a0:	44554c43 41415f45 33484352 45525f32     CLUDE_AARCH32_RE
    800077b0:	3d205347 00003020 334c4214 25203a31     GS = 0...BL31: %
    800077c0:	00000a73 00000000                       s.......

00000000800077c8 <psci_args.2704>:
    800077c8:	00100106 00000000 800001c0 00000000     ................
    800077d8:	766e490a 64696c61 6e757220 656d6974     .Invalid runtime
    800077e8:	72657320 65636976 73656420 70697263      service descrip
    800077f8:	20726f74 000a7025 7272450a 6920726f     tor %p...Error i
    80007808:	6974696e 7a696c61 20676e69 746e7572     nitializing runt
    80007818:	20656d69 76726573 20656369 000a7325     ime service %s..
    80007828:	5f6d7261 68637261 6376735f 00000000     arm_arch_svc....
    80007838:	5f647473 00637673 656e550a 63657078     std_svc..Unexpec
    80007848:	20646574 69666661 7974696e 666e6920     ted affinity inf
    80007858:	7473206f 00657461 766e490a 64696c61     o state..Invalid
    80007868:	72617420 20746567 65776f70 656c2072      target power le
    80007878:	206c6576 20726f66 70737573 20646e65     vel for suspend 
    80007888:	7265706f 6f697461 00000a6e 00000000     operation.......
    80007898:	4f525245 20203a52 00000020 00000000     ERROR:   .......
    800078a8:	49544f4e 203a4543 00000020 00000000     NOTICE:  .......
    800078b8:	4e524157 3a474e49 00000020 00000000     WARNING: .......
    800078c8:	4f464e49 2020203a 00000020 00000000     INFO:    .......
    800078d8:	42524556 3a45534f 00000020 00000000     VERBOSE: .......

00000000800078e8 <plat_prefix_str>:
    800078e8:	80007898 00000000 800078a8 00000000     .x.......x......
    800078f8:	800078b8 00000000 800078c8 00000000     .x.......x......
    80007908:	800078d8 00000000 686e550a 6c646e61     .x.......Unhandl
    80007918:	45206465 72657478 206c616e 726f6241     ed External Abor
    80007928:	65722074 76696563 6f206465 7830206e     t received on 0x
    80007938:	20786c25 45207461 0a21334c 00000000     %lx at EL3!.....
    80007948:	7865200a 74706563 206e6f69 73616572     . exception reas
    80007958:	253d6e6f 79732075 6f72646e 303d656d     on=%u syndrome=0
    80007968:	6c6c2578                                 x%llx..

000000008000796f <panic_msg>:
    8000796f:	50          	.byte	0x50
    80007970:	43494e41 	.word	0x43494e41
    80007974:	20746120 	.word	0x20746120
    80007978:	3a204350 	.word	0x3a204350
    8000797c:	00783020 	.word	0x00783020
    80007980:	00007830 	.word	0x00007830
    80007984:	00000000 	.word	0x00000000

0000000080007988 <__RT_SVC_DESCS_START__>:
    80007988:	00010202 	.word	0x00010202
    8000798c:	00000000 	.word	0x00000000
    80007990:	80007718 	.word	0x80007718
    80007994:	00000000 	.word	0x00000000
    80007998:	80001948 	.word	0x80001948
    8000799c:	00000000 	.word	0x00000000
    800079a0:	80001808 	.word	0x80001808
    800079a4:	00000000 	.word	0x00000000

00000000800079a8 <__svc_desc_arm_arch_svc>:
    800079a8:	00010000 00000000 80007828 00000000     ........(x......
	...
    800079c0:	80003ed8 00000000                       .>......

00000000800079c8 <__svc_desc_std_svc>:
    800079c8:	00010404 00000000 80007838 00000000     ........8x......
    800079d8:	80003f98 00000000 80003fc0 00000000     .?.......?......

00000000800079e8 <__CPU_OPS_START__>:
    800079e8:	410fd030 	.word	0x410fd030
    800079ec:	00000000 	.word	0x00000000
    800079f0:	800061b8 	.word	0x800061b8
	...
    80007a08:	800061e0 	.word	0x800061e0
    80007a0c:	00000000 	.word	0x00000000
    80007a10:	800061f8 	.word	0x800061f8
    80007a14:	00000000 	.word	0x00000000
    80007a18:	410fd080 	.word	0x410fd080
    80007a1c:	00000000 	.word	0x00000000
    80007a20:	800062d0 	.word	0x800062d0
    80007a24:	00000000 	.word	0x00000000
    80007a28:	800062b0 	.word	0x800062b0
	...
    80007a38:	80006324 	.word	0x80006324
    80007a3c:	00000000 	.word	0x00000000
    80007a40:	80006348 	.word	0x80006348
    80007a44:	00000000 	.word	0x00000000

0000000080007a48 <__cb_func_spe_drain_buffers_hookcm_entering_secure_world>:
    80007a48:	80005e80 00000000                       .^......

0000000080007a50 <__cb_func_enable_sve_hookcm_entering_normal_world>:
    80007a50:	80005f18 00000000                       ._......

0000000080007a58 <__cb_func_disable_sve_hookcm_exited_normal_world>:
    80007a58:	80005ee0 00000000                       .^......

0000000080007a60 <__pubsub_cm_exited_normal_world_end>:
	...

0000000080008000 <sync_exception_sp_el0>:
    80008000:	17fff910 	b	80006440 <report_unhandled_exception>
	...

0000000080008080 <irq_sp_el0>:
    80008080:	17fff8f0 	b	80006440 <report_unhandled_exception>
	...

0000000080008100 <fiq_sp_el0>:
    80008100:	17fff8d0 	b	80006440 <report_unhandled_exception>
	...

0000000080008180 <serror_sp_el0>:
    80008180:	97fffab4 	bl	80006c50 <plat_handle_el3_ea>
	...

0000000080008200 <sync_exception_sp_elx>:
    80008200:	17fff890 	b	80006440 <report_unhandled_exception>
	...

0000000080008280 <irq_sp_elx>:
    80008280:	17fff870 	b	80006440 <report_unhandled_exception>
	...

0000000080008300 <fiq_sp_elx>:
    80008300:	17fff850 	b	80006440 <report_unhandled_exception>
	...

0000000080008380 <serror_sp_elx>:
    80008380:	97fffa34 	bl	80006c50 <plat_handle_el3_ea>
	...

0000000080008400 <sync_exception_aarch64>:
    80008400:	d50344ff 	msr	daifclr, #0x4
    80008404:	f9007bfe 	str	x30, [sp, #240]
    80008408:	d53e521e 	mrs	x30, esr_el3
    8000840c:	d35a7fde 	ubfx	x30, x30, #26, #6
    80008410:	f1004fdf 	cmp	x30, #0x13
    80008414:	54ff07c0 	b.eq	8000650c <smc_handler>  // b.none
    80008418:	f1005fdf 	cmp	x30, #0x17
    8000841c:	54ff07a0 	b.eq	80006510 <smc_handler64>  // b.none
    80008420:	f9407bfe 	ldr	x30, [sp, #240]
    80008424:	17fff808 	b	80006444 <enter_lower_el_sync_ea>
	...

0000000080008480 <irq_aarch64>:
    80008480:	d50344ff 	msr	daifclr, #0x4
    80008484:	f9007bfe 	str	x30, [sp, #240]
    80008488:	97fff8fa 	bl	80006870 <save_gp_registers>
    8000848c:	d53e4000 	mrs	x0, spsr_el3
    80008490:	d53e4021 	mrs	x1, elr_el3
    80008494:	a91187e0 	stp	x0, x1, [sp, #280]
    80008498:	f9408be2 	ldr	x2, [sp, #272]
    8000849c:	910003f4 	mov	x20, sp
    800084a0:	d50040bf 	msr	spsel, #0x0
    800084a4:	9100005f 	mov	sp, x2
    800084a8:	97ffea74 	bl	80002e78 <plat_ic_get_pending_interrupt_type>
    800084ac:	f1000c1f 	cmp	x0, #0x3
    800084b0:	54000140 	b.eq	800084d8 <interrupt_exit_irq_aarch64>  // b.none
    800084b4:	97ffee13 	bl	80003d00 <get_interrupt_type_handler>
    800084b8:	b4000100 	cbz	x0, 800084d8 <interrupt_exit_irq_aarch64>
    800084bc:	aa0003f5 	mov	x21, x0
    800084c0:	b2407fe0 	mov	x0, #0xffffffff            	// #4294967295
    800084c4:	d53e1102 	mrs	x2, scr_el3
    800084c8:	d3400041 	ubfx	x1, x2, #0, #1
    800084cc:	aa1403e2 	mov	x2, x20
    800084d0:	aa1f03e3 	mov	x3, xzr
    800084d4:	d63f02a0 	blr	x21

00000000800084d8 <interrupt_exit_irq_aarch64>:
    800084d8:	17fff90d 	b	8000690c <el3_exit>
	...

0000000080008500 <fiq_aarch64>:
    80008500:	d50344ff 	msr	daifclr, #0x4
    80008504:	f9007bfe 	str	x30, [sp, #240]
    80008508:	97fff8da 	bl	80006870 <save_gp_registers>
    8000850c:	d53e4000 	mrs	x0, spsr_el3
    80008510:	d53e4021 	mrs	x1, elr_el3
    80008514:	a91187e0 	stp	x0, x1, [sp, #280]
    80008518:	f9408be2 	ldr	x2, [sp, #272]
    8000851c:	910003f4 	mov	x20, sp
    80008520:	d50040bf 	msr	spsel, #0x0
    80008524:	9100005f 	mov	sp, x2
    80008528:	97ffea54 	bl	80002e78 <plat_ic_get_pending_interrupt_type>
    8000852c:	f1000c1f 	cmp	x0, #0x3
    80008530:	54000140 	b.eq	80008558 <interrupt_exit_fiq_aarch64>  // b.none
    80008534:	97ffedf3 	bl	80003d00 <get_interrupt_type_handler>
    80008538:	b4000100 	cbz	x0, 80008558 <interrupt_exit_fiq_aarch64>
    8000853c:	aa0003f5 	mov	x21, x0
    80008540:	b2407fe0 	mov	x0, #0xffffffff            	// #4294967295
    80008544:	d53e1102 	mrs	x2, scr_el3
    80008548:	d3400041 	ubfx	x1, x2, #0, #1
    8000854c:	aa1403e2 	mov	x2, x20
    80008550:	aa1f03e3 	mov	x3, xzr
    80008554:	d63f02a0 	blr	x21

0000000080008558 <interrupt_exit_fiq_aarch64>:
    80008558:	17fff8ed 	b	8000690c <el3_exit>
	...

0000000080008580 <serror_aarch64>:
    80008580:	d50344ff 	msr	daifclr, #0x4
    80008584:	17fff7c0 	b	80006484 <enter_lower_el_async_ea>
	...

0000000080008600 <sync_exception_aarch32>:
    80008600:	d50344ff 	msr	daifclr, #0x4
    80008604:	f9007bfe 	str	x30, [sp, #240]
    80008608:	d53e521e 	mrs	x30, esr_el3
    8000860c:	d35a7fde 	ubfx	x30, x30, #26, #6
    80008610:	f1004fdf 	cmp	x30, #0x13
    80008614:	54fef7c0 	b.eq	8000650c <smc_handler>  // b.none
    80008618:	f1005fdf 	cmp	x30, #0x17
    8000861c:	54fef7a0 	b.eq	80006510 <smc_handler64>  // b.none
    80008620:	f9407bfe 	ldr	x30, [sp, #240]
    80008624:	17fff788 	b	80006444 <enter_lower_el_sync_ea>
	...

0000000080008680 <irq_aarch32>:
    80008680:	d50344ff 	msr	daifclr, #0x4
    80008684:	f9007bfe 	str	x30, [sp, #240]
    80008688:	97fff87a 	bl	80006870 <save_gp_registers>
    8000868c:	d53e4000 	mrs	x0, spsr_el3
    80008690:	d53e4021 	mrs	x1, elr_el3
    80008694:	a91187e0 	stp	x0, x1, [sp, #280]
    80008698:	f9408be2 	ldr	x2, [sp, #272]
    8000869c:	910003f4 	mov	x20, sp
    800086a0:	d50040bf 	msr	spsel, #0x0
    800086a4:	9100005f 	mov	sp, x2
    800086a8:	97ffe9f4 	bl	80002e78 <plat_ic_get_pending_interrupt_type>
    800086ac:	f1000c1f 	cmp	x0, #0x3
    800086b0:	54000140 	b.eq	800086d8 <interrupt_exit_irq_aarch32>  // b.none
    800086b4:	97ffed93 	bl	80003d00 <get_interrupt_type_handler>
    800086b8:	b4000100 	cbz	x0, 800086d8 <interrupt_exit_irq_aarch32>
    800086bc:	aa0003f5 	mov	x21, x0
    800086c0:	b2407fe0 	mov	x0, #0xffffffff            	// #4294967295
    800086c4:	d53e1102 	mrs	x2, scr_el3
    800086c8:	d3400041 	ubfx	x1, x2, #0, #1
    800086cc:	aa1403e2 	mov	x2, x20
    800086d0:	aa1f03e3 	mov	x3, xzr
    800086d4:	d63f02a0 	blr	x21

00000000800086d8 <interrupt_exit_irq_aarch32>:
    800086d8:	17fff88d 	b	8000690c <el3_exit>
	...

0000000080008700 <fiq_aarch32>:
    80008700:	d50344ff 	msr	daifclr, #0x4
    80008704:	f9007bfe 	str	x30, [sp, #240]
    80008708:	97fff85a 	bl	80006870 <save_gp_registers>
    8000870c:	d53e4000 	mrs	x0, spsr_el3
    80008710:	d53e4021 	mrs	x1, elr_el3
    80008714:	a91187e0 	stp	x0, x1, [sp, #280]
    80008718:	f9408be2 	ldr	x2, [sp, #272]
    8000871c:	910003f4 	mov	x20, sp
    80008720:	d50040bf 	msr	spsel, #0x0
    80008724:	9100005f 	mov	sp, x2
    80008728:	97ffe9d4 	bl	80002e78 <plat_ic_get_pending_interrupt_type>
    8000872c:	f1000c1f 	cmp	x0, #0x3
    80008730:	54000140 	b.eq	80008758 <interrupt_exit_fiq_aarch32>  // b.none
    80008734:	97ffed73 	bl	80003d00 <get_interrupt_type_handler>
    80008738:	b4000100 	cbz	x0, 80008758 <interrupt_exit_fiq_aarch32>
    8000873c:	aa0003f5 	mov	x21, x0
    80008740:	b2407fe0 	mov	x0, #0xffffffff            	// #4294967295
    80008744:	d53e1102 	mrs	x2, scr_el3
    80008748:	d3400041 	ubfx	x1, x2, #0, #1
    8000874c:	aa1403e2 	mov	x2, x20
    80008750:	aa1f03e3 	mov	x3, xzr
    80008754:	d63f02a0 	blr	x21

0000000080008758 <interrupt_exit_fiq_aarch32>:
    80008758:	17fff86d 	b	8000690c <el3_exit>
	...

0000000080008780 <serror_aarch32>:
    80008780:	d50344ff 	msr	daifclr, #0x4
    80008784:	17fff740 	b	80006484 <enter_lower_el_async_ea>
	...

0000000080008800 <mmu_sync_exception_sp_el0>:
    80008800:	17fffe00 	b	80008000 <sync_exception_sp_el0>
	...

0000000080008880 <mmu_irq_sp_el0>:
    80008880:	17fffe00 	b	80008080 <irq_sp_el0>
	...

0000000080008900 <mmu_fiq_sp_el0>:
    80008900:	17fffe00 	b	80008100 <fiq_sp_el0>
	...

0000000080008980 <mmu_serror_sp_el0>:
    80008980:	17fffe00 	b	80008180 <serror_sp_el0>
	...

0000000080008a00 <mmu_sync_exception_sp_elx>:
    80008a00:	17fffe00 	b	80008200 <sync_exception_sp_elx>
	...

0000000080008a80 <mmu_irq_sp_elx>:
    80008a80:	17fffe00 	b	80008280 <irq_sp_elx>
	...

0000000080008b00 <mmu_fiq_sp_elx>:
    80008b00:	17fffe00 	b	80008300 <fiq_sp_elx>
	...

0000000080008b80 <mmu_serror_sp_elx>:
    80008b80:	17fffe00 	b	80008380 <serror_sp_elx>
	...

0000000080008c00 <mmu_sync_exception_aarch64>:
    80008c00:	a90007e0 	stp	x0, x1, [sp]
    80008c04:	d53e1001 	mrs	x1, sctlr_el3
    80008c08:	927ff821 	and	x1, x1, #0xfffffffffffffffe
    80008c0c:	d51e1001 	msr	sctlr_el3, x1
    80008c10:	d5033fdf 	isb
    80008c14:	b2400021 	orr	x1, x1, #0x1
    80008c18:	d51e1001 	msr	sctlr_el3, x1
    80008c1c:	320183e1 	mov	w1, #0x80008000            	// #-2147450880
    80008c20:	6b01001f 	cmp	w0, w1
    80008c24:	d53e5200 	mrs	x0, esr_el3
    80008c28:	52abc001 	mov	w1, #0x5e000000            	// #1577058304
    80008c2c:	7a410000 	ccmp	w0, w1, #0x0, eq  // eq = none
    80008c30:	54000041 	b.ne	80008c38 <mmu_sync_exception_aarch64+0x38>  // b.any
    80008c34:	d69f03e0 	eret
    80008c38:	d5033fdf 	isb
    80008c3c:	a94007e0 	ldp	x0, x1, [sp]
    80008c40:	17fffdf0 	b	80008400 <sync_exception_aarch64>
	...

0000000080008c80 <mmu_irq_aarch64>:
    80008c80:	a90007e0 	stp	x0, x1, [sp]
    80008c84:	d53e1001 	mrs	x1, sctlr_el3
    80008c88:	927ff821 	and	x1, x1, #0xfffffffffffffffe
    80008c8c:	d51e1001 	msr	sctlr_el3, x1
    80008c90:	d5033fdf 	isb
    80008c94:	b2400021 	orr	x1, x1, #0x1
    80008c98:	d51e1001 	msr	sctlr_el3, x1
    80008c9c:	d5033fdf 	isb
    80008ca0:	a94007e0 	ldp	x0, x1, [sp]
    80008ca4:	17fffdf7 	b	80008480 <irq_aarch64>
	...

0000000080008d00 <mmu_fiq_aarch64>:
    80008d00:	a90007e0 	stp	x0, x1, [sp]
    80008d04:	d53e1001 	mrs	x1, sctlr_el3
    80008d08:	927ff821 	and	x1, x1, #0xfffffffffffffffe
    80008d0c:	d51e1001 	msr	sctlr_el3, x1
    80008d10:	d5033fdf 	isb
    80008d14:	b2400021 	orr	x1, x1, #0x1
    80008d18:	d51e1001 	msr	sctlr_el3, x1
    80008d1c:	d5033fdf 	isb
    80008d20:	a94007e0 	ldp	x0, x1, [sp]
    80008d24:	17fffdf7 	b	80008500 <fiq_aarch64>
	...

0000000080008d80 <mmu_serror_aarch64>:
    80008d80:	a90007e0 	stp	x0, x1, [sp]
    80008d84:	d53e1001 	mrs	x1, sctlr_el3
    80008d88:	927ff821 	and	x1, x1, #0xfffffffffffffffe
    80008d8c:	d51e1001 	msr	sctlr_el3, x1
    80008d90:	d5033fdf 	isb
    80008d94:	b2400021 	orr	x1, x1, #0x1
    80008d98:	d51e1001 	msr	sctlr_el3, x1
    80008d9c:	d5033fdf 	isb
    80008da0:	a94007e0 	ldp	x0, x1, [sp]
    80008da4:	17fffdf7 	b	80008580 <serror_aarch64>
	...

0000000080008e00 <mmu_sync_exception_aarch32>:
    80008e00:	a90007e0 	stp	x0, x1, [sp]
    80008e04:	d53e1001 	mrs	x1, sctlr_el3
    80008e08:	927ff821 	and	x1, x1, #0xfffffffffffffffe
    80008e0c:	d51e1001 	msr	sctlr_el3, x1
    80008e10:	d5033fdf 	isb
    80008e14:	b2400021 	orr	x1, x1, #0x1
    80008e18:	d51e1001 	msr	sctlr_el3, x1
    80008e1c:	320183e1 	mov	w1, #0x80008000            	// #-2147450880
    80008e20:	6b01001f 	cmp	w0, w1
    80008e24:	d53e5200 	mrs	x0, esr_el3
    80008e28:	52a9c001 	mov	w1, #0x4e000000            	// #1308622848
    80008e2c:	7a410000 	ccmp	w0, w1, #0x0, eq  // eq = none
    80008e30:	54000041 	b.ne	80008e38 <mmu_sync_exception_aarch32+0x38>  // b.any
    80008e34:	d69f03e0 	eret
    80008e38:	d5033fdf 	isb
    80008e3c:	a94007e0 	ldp	x0, x1, [sp]
    80008e40:	17fffdf0 	b	80008600 <sync_exception_aarch32>
	...

0000000080008e80 <mmu_irq_aarch32>:
    80008e80:	a90007e0 	stp	x0, x1, [sp]
    80008e84:	d53e1001 	mrs	x1, sctlr_el3
    80008e88:	927ff821 	and	x1, x1, #0xfffffffffffffffe
    80008e8c:	d51e1001 	msr	sctlr_el3, x1
    80008e90:	d5033fdf 	isb
    80008e94:	b2400021 	orr	x1, x1, #0x1
    80008e98:	d51e1001 	msr	sctlr_el3, x1
    80008e9c:	d5033fdf 	isb
    80008ea0:	a94007e0 	ldp	x0, x1, [sp]
    80008ea4:	17fffdf7 	b	80008680 <irq_aarch32>
	...

0000000080008f00 <mmu_fiq_aarch32>:
    80008f00:	a90007e0 	stp	x0, x1, [sp]
    80008f04:	d53e1001 	mrs	x1, sctlr_el3
    80008f08:	927ff821 	and	x1, x1, #0xfffffffffffffffe
    80008f0c:	d51e1001 	msr	sctlr_el3, x1
    80008f10:	d5033fdf 	isb
    80008f14:	b2400021 	orr	x1, x1, #0x1
    80008f18:	d51e1001 	msr	sctlr_el3, x1
    80008f1c:	d5033fdf 	isb
    80008f20:	a94007e0 	ldp	x0, x1, [sp]
    80008f24:	17fffdf7 	b	80008700 <fiq_aarch32>
	...

0000000080008f80 <mmu_serror_aarch32>:
    80008f80:	a90007e0 	stp	x0, x1, [sp]
    80008f84:	d53e1001 	mrs	x1, sctlr_el3
    80008f88:	927ff821 	and	x1, x1, #0xfffffffffffffffe
    80008f8c:	d51e1001 	msr	sctlr_el3, x1
    80008f90:	d5033fdf 	isb
    80008f94:	b2400021 	orr	x1, x1, #0x1
    80008f98:	d51e1001 	msr	sctlr_el3, x1
    80008f9c:	d5033fdf 	isb
    80008fa0:	a94007e0 	ldp	x0, x1, [sp]
    80008fa4:	17fffdf7 	b	80008780 <serror_aarch32>
	...
